

Microchip MPLAB XC8 Assembler V2.31 build 20201012212115 
                                                                                               Wed Jun 30 20:11:20 2021

Microchip MPLAB XC8 C Compiler v2.31 (Free license) build 20201012212115 Og1 
     1                           	processor	16F887
     2                           	pagewidth 120
     3                           	opt	flic
     4                           	psect	idataBANK0,global,class=CODE,delta=2,noexec
     5                           	psect	cinit,global,class=CODE,merge=1,delta=2
     6                           	psect	bssBANK0,global,class=BANK0,space=1,delta=1,noexec
     7                           	psect	dataBANK0,global,class=BANK0,space=1,delta=1,noexec
     8                           	psect	cstackCOMMON,global,class=COMMON,space=1,delta=1,noexec
     9                           	psect	cstackBANK0,global,class=BANK0,space=1,delta=1,noexec
    10                           	psect	maintext,global,class=CODE,split=1,delta=2
    11                           	psect	text1,local,class=CODE,merge=1,delta=2
    12                           	psect	text2,local,class=CODE,merge=1,delta=2
    13                           	psect	intentry,global,class=CODE,delta=2
    14                           	psect	text3,local,class=CODE,merge=1,delta=2
    15                           	psect	text4,local,class=CODE,merge=1,delta=2
    16                           	psect	text5,local,class=CODE,merge=1,delta=2,group=1
    17                           	psect	text6,local,class=CODE,merge=1,delta=2,group=1
    18                           	psect	config,global,abs,ovrld,class=CONFIG,space=4,delta=2,noexec
    19                           	dabs	1,0x7E,2
    20  0000                     
    21                           ; Version 2.20
    22                           ; Generated 12/02/2020 GMT
    23                           ; 
    24                           ; Copyright © 2020, Microchip Technology Inc. and its subsidiaries ("Microchip")
    25                           ; All rights reserved.
    26                           ; 
    27                           ; This software is developed by Microchip Technology Inc. and its subsidiaries ("Microch
      +                          ip").
    28                           ; 
    29                           ; Redistribution and use in source and binary forms, with or without modification, are
    30                           ; permitted provided that the following conditions are met:
    31                           ; 
    32                           ;     1. Redistributions of source code must retain the above copyright notice, this lis
      +                          t of
    33                           ;        conditions and the following disclaimer.
    34                           ; 
    35                           ;     2. Redistributions in binary form must reproduce the above copyright notice, this 
      +                          list
    36                           ;        of conditions and the following disclaimer in the documentation and/or other
    37                           ;        materials provided with the distribution.
    38                           ; 
    39                           ;     3. Microchip's name may not be used to endorse or promote products derived from th
      +                          is
    40                           ;        software without specific prior written permission.
    41                           ; 
    42                           ; THIS SOFTWARE IS PROVIDED BY MICROCHIP "AS IS" AND ANY EXPRESS OR IMPLIED WARRANTIES,
    43                           ; INCLUDING, BUT NOT LIMITED TO, THE IMPLIED WARRANTIES OF MERCHANTABILITY AND FITNESS F
      +                          OR
    44                           ; PURPOSE ARE DISCLAIMED.  IN NO EVENT SHALL MICROCHIP BE LIABLE FOR ANY DIRECT, INDIREC
      +                          T,
    45                           ; INCIDENTAL, SPECIAL, EXEMPLARY, OR CONSEQUENTIAL DAMAGES (INCLUDING BUT NOT LIMITED TO
    46                           ; PROCUREMENT OF SUBSTITUTE GOODS OR SERVICES; LOSS OF USE, DATA OR PROFITS; OR BUSINESS
    47                           ; INTERRUPTION) HOWSOEVER CAUSED AND ON ANY THEORY OF LIABILITY, WHETHER IN CONTRACT, ST
      +                          RICT
    48                           ; LIABILITY, OR TORT (INCLUDING NEGLIGENCE OR OTHERWISE) ARISING IN ANY WAY OUT OF THE U
      +                          SE OF
    49                           ; THIS SOFTWARE, EVEN IF ADVISED OF THE POSSIBILITY OF SUCH DAMAGE.
    50                           ; 
    51                           ; 
    52                           ; Code-generator required, PIC16F887 Definitions
    53                           ; 
    54                           ; SFR Addresses
    55  0000                     	;# 
    56  0001                     	;# 
    57  0002                     	;# 
    58  0003                     	;# 
    59  0004                     	;# 
    60  0005                     	;# 
    61  0006                     	;# 
    62  0007                     	;# 
    63  0008                     	;# 
    64  0009                     	;# 
    65  000A                     	;# 
    66  000B                     	;# 
    67  000C                     	;# 
    68  000D                     	;# 
    69  000E                     	;# 
    70  000E                     	;# 
    71  000F                     	;# 
    72  0010                     	;# 
    73  0011                     	;# 
    74  0012                     	;# 
    75  0013                     	;# 
    76  0014                     	;# 
    77  0015                     	;# 
    78  0015                     	;# 
    79  0016                     	;# 
    80  0017                     	;# 
    81  0018                     	;# 
    82  0019                     	;# 
    83  001A                     	;# 
    84  001B                     	;# 
    85  001B                     	;# 
    86  001C                     	;# 
    87  001D                     	;# 
    88  001E                     	;# 
    89  001F                     	;# 
    90  0081                     	;# 
    91  0085                     	;# 
    92  0086                     	;# 
    93  0087                     	;# 
    94  0088                     	;# 
    95  0089                     	;# 
    96  008C                     	;# 
    97  008D                     	;# 
    98  008E                     	;# 
    99  008F                     	;# 
   100  0090                     	;# 
   101  0091                     	;# 
   102  0092                     	;# 
   103  0093                     	;# 
   104  0093                     	;# 
   105  0093                     	;# 
   106  0094                     	;# 
   107  0095                     	;# 
   108  0096                     	;# 
   109  0097                     	;# 
   110  0098                     	;# 
   111  0099                     	;# 
   112  009A                     	;# 
   113  009B                     	;# 
   114  009C                     	;# 
   115  009D                     	;# 
   116  009E                     	;# 
   117  009F                     	;# 
   118  0105                     	;# 
   119  0107                     	;# 
   120  0108                     	;# 
   121  0109                     	;# 
   122  010C                     	;# 
   123  010C                     	;# 
   124  010D                     	;# 
   125  010E                     	;# 
   126  010F                     	;# 
   127  0185                     	;# 
   128  0187                     	;# 
   129  0188                     	;# 
   130  0189                     	;# 
   131  018C                     	;# 
   132  018D                     	;# 
   133  0000                     	;# 
   134  0001                     	;# 
   135  0002                     	;# 
   136  0003                     	;# 
   137  0004                     	;# 
   138  0005                     	;# 
   139  0006                     	;# 
   140  0007                     	;# 
   141  0008                     	;# 
   142  0009                     	;# 
   143  000A                     	;# 
   144  000B                     	;# 
   145  000C                     	;# 
   146  000D                     	;# 
   147  000E                     	;# 
   148  000E                     	;# 
   149  000F                     	;# 
   150  0010                     	;# 
   151  0011                     	;# 
   152  0012                     	;# 
   153  0013                     	;# 
   154  0014                     	;# 
   155  0015                     	;# 
   156  0015                     	;# 
   157  0016                     	;# 
   158  0017                     	;# 
   159  0018                     	;# 
   160  0019                     	;# 
   161  001A                     	;# 
   162  001B                     	;# 
   163  001B                     	;# 
   164  001C                     	;# 
   165  001D                     	;# 
   166  001E                     	;# 
   167  001F                     	;# 
   168  0081                     	;# 
   169  0085                     	;# 
   170  0086                     	;# 
   171  0087                     	;# 
   172  0088                     	;# 
   173  0089                     	;# 
   174  008C                     	;# 
   175  008D                     	;# 
   176  008E                     	;# 
   177  008F                     	;# 
   178  0090                     	;# 
   179  0091                     	;# 
   180  0092                     	;# 
   181  0093                     	;# 
   182  0093                     	;# 
   183  0093                     	;# 
   184  0094                     	;# 
   185  0095                     	;# 
   186  0096                     	;# 
   187  0097                     	;# 
   188  0098                     	;# 
   189  0099                     	;# 
   190  009A                     	;# 
   191  009B                     	;# 
   192  009C                     	;# 
   193  009D                     	;# 
   194  009E                     	;# 
   195  009F                     	;# 
   196  0105                     	;# 
   197  0107                     	;# 
   198  0108                     	;# 
   199  0109                     	;# 
   200  010C                     	;# 
   201  010C                     	;# 
   202  010D                     	;# 
   203  010E                     	;# 
   204  010F                     	;# 
   205  0185                     	;# 
   206  0187                     	;# 
   207  0188                     	;# 
   208  0189                     	;# 
   209  018C                     	;# 
   210  018D                     	;# 
   211                           
   212                           	psect	idataBANK0
   213  0368                     __pidataBANK0:
   214                           
   215                           ;initializer for _addpot3
   216  0368  3409               	retlw	9
   217                           
   218                           ;initializer for _addpot2
   219  0369  3408               	retlw	8
   220                           
   221                           ;initializer for _addpot1
   222  036A  3407               	retlw	7
   223                           
   224                           ;initializer for _addpot0
   225  036B  3406               	retlw	6
   226                           
   227                           ;initializer for _addpotccp2
   228  036C  3405               	retlw	5
   229                           
   230                           ;initializer for _addpotccp1
   231  036D  3404               	retlw	4
   232  0018                     _RCSTAbits	set	24
   233  0012                     _T2CONbits	set	18
   234  001D                     _CCP2CONbits	set	29
   235  0017                     _CCP1CONbits	set	23
   236  0009                     _PORTE	set	9
   237  0008                     _PORTD	set	8
   238  0006                     _PORTB	set	6
   239  0007                     _PORTC	set	7
   240  0005                     _PORTA	set	5
   241  0001                     _TMR0	set	1
   242  001F                     _ADCON0bits	set	31
   243  001E                     _ADRESH	set	30
   244  001B                     _CCPR2L	set	27
   245  0015                     _CCPR1L	set	21
   246  0006                     _PORTBbits	set	6
   247  0019                     _TXREG	set	25
   248  000C                     _PIR1bits	set	12
   249  000D                     _PIR2bits	set	13
   250  000B                     _INTCONbits	set	11
   251  0043                     _RD3	set	67
   252  0042                     _RD2	set	66
   253  0041                     _RD1	set	65
   254  0040                     _RD0	set	64
   255  005A                     _T0IF	set	90
   256  0066                     _ADIF	set	102
   257  0058                     _RBIF	set	88
   258  008C                     _PIE1bits	set	140
   259  009A                     _SPBRGH	set	154
   260  0099                     _SPBRG	set	153
   261  0092                     _PR2	set	146
   262  0087                     _TRISCbits	set	135
   263  009F                     _ADCON1bits	set	159
   264  0096                     _IOCBbits	set	150
   265  0095                     _WPUBbits	set	149
   266  0081                     _OPTION_REGbits	set	129
   267  0089                     _TRISE	set	137
   268  0088                     _TRISD	set	136
   269  0087                     _TRISC	set	135
   270  0086                     _TRISB	set	134
   271  0085                     _TRISA	set	133
   272  008F                     _OSCCONbits	set	143
   273  0098                     _TXSTAbits	set	152
   274  010C                     _EEDAT	set	268
   275  010D                     _EEADR	set	269
   276  0187                     _BAUDCTLbits	set	391
   277  0188                     _ANSELbits	set	392
   278  0189                     _ANSELH	set	393
   279  018D                     _EECON2	set	397
   280  018C                     _EECON1bits	set	396
   281                           
   282                           	psect	cinit
   283  0013                     start_initialization:	
   284                           ; #config settings
   285                           
   286  0013                     __initialization:
   287                           
   288                           ; Initialize objects allocated to BANK0
   289  0013  120A  118A  2368  120A  118A  	fcall	__pidataBANK0	;fetch initializer
   290  0018  00B7               	movwf	__pdataBANK0& (0+127)
   291  0019  120A  118A  2369  120A  118A  	fcall	__pidataBANK0+1	;fetch initializer
   292  001E  00B8               	movwf	(__pdataBANK0+1)& (0+127)
   293  001F  120A  118A  236A  120A  118A  	fcall	__pidataBANK0+2	;fetch initializer
   294  0024  00B9               	movwf	(__pdataBANK0+2)& (0+127)
   295  0025  120A  118A  236B  120A  118A  	fcall	__pidataBANK0+3	;fetch initializer
   296  002A  00BA               	movwf	(__pdataBANK0+3)& (0+127)
   297  002B  120A  118A  236C  120A  118A  	fcall	__pidataBANK0+4	;fetch initializer
   298  0030  00BB               	movwf	(__pdataBANK0+4)& (0+127)
   299  0031  120A  118A  236D  120A  118A  	fcall	__pidataBANK0+5	;fetch initializer
   300  0036  00BC               	movwf	(__pdataBANK0+5)& (0+127)
   301                           
   302                           ; Clear objects allocated to BANK0
   303  0037  01AD               	clrf	__pbssBANK0& (0+127)
   304  0038  01AE               	clrf	(__pbssBANK0+1)& (0+127)
   305  0039  01AF               	clrf	(__pbssBANK0+2)& (0+127)
   306  003A  01B0               	clrf	(__pbssBANK0+3)& (0+127)
   307  003B  01B1               	clrf	(__pbssBANK0+4)& (0+127)
   308  003C  01B2               	clrf	(__pbssBANK0+5)& (0+127)
   309  003D  01B3               	clrf	(__pbssBANK0+6)& (0+127)
   310  003E  01B4               	clrf	(__pbssBANK0+7)& (0+127)
   311  003F  01B5               	clrf	(__pbssBANK0+8)& (0+127)
   312  0040  01B6               	clrf	(__pbssBANK0+9)& (0+127)
   313  0041                     end_of_initialization:	
   314                           ;End of C runtime variable initialization code
   315                           
   316  0041                     __end_of__initialization:
   317  0041  0183               	clrf	3
   318  0042  120A  118A  29A2   	ljmp	_main	;jump to C main() function
   319                           
   320                           	psect	bssBANK0
   321  002D                     __pbssBANK0:
   322  002D                     _writepos:
   323  002D                     	ds	1
   324  002E                     _savedpos:
   325  002E                     	ds	1
   326  002F                     _valservo3:
   327  002F                     	ds	1
   328  0030                     _valservo2:
   329  0030                     	ds	1
   330  0031                     _valservo1:
   331  0031                     	ds	1
   332  0032                     _valservo0:
   333  0032                     	ds	1
   334  0033                     _contservo3:
   335  0033                     	ds	1
   336  0034                     _contservo2:
   337  0034                     	ds	1
   338  0035                     _contservo1:
   339  0035                     	ds	1
   340  0036                     _contservo0:
   341  0036                     	ds	1
   342                           
   343                           	psect	dataBANK0
   344  0037                     __pdataBANK0:
   345  0037                     _addpot3:
   346  0037                     	ds	1
   347  0038                     _addpot2:
   348  0038                     	ds	1
   349  0039                     _addpot1:
   350  0039                     	ds	1
   351  003A                     _addpot0:
   352  003A                     	ds	1
   353  003B                     _addpotccp2:
   354  003B                     	ds	1
   355  003C                     _addpotccp1:
   356  003C                     	ds	1
   357                           
   358                           	psect	cstackCOMMON
   359  0070                     __pcstackCOMMON:
   360  0070                     ?_mapear:
   361  0070                     ?_read:	
   362                           ; 1 bytes @ 0x0
   363                           
   364  0070                     ??_read:	
   365                           ; 1 bytes @ 0x0
   366                           
   367  0070                     ?_isr:	
   368                           ; 1 bytes @ 0x0
   369                           
   370  0070                     ?_main:	
   371                           ; 1 bytes @ 0x0
   372                           
   373  0070                     ?___wmul:	
   374                           ; 1 bytes @ 0x0
   375                           
   376  0070                     ___wmul@multiplier:	
   377                           ; 2 bytes @ 0x0
   378                           
   379                           
   380                           ; 2 bytes @ 0x0
   381  0070                     	ds	1
   382  0071                     read@address:
   383                           
   384                           ; 1 bytes @ 0x1
   385  0071                     	ds	1
   386  0072                     read@data:
   387  0072                     ___wmul@multiplicand:	
   388                           ; 1 bytes @ 0x2
   389                           
   390                           
   391                           ; 2 bytes @ 0x2
   392  0072                     	ds	2
   393  0074                     ??___wmul:
   394  0074                     ___wmul@product:	
   395                           ; 1 bytes @ 0x4
   396                           
   397                           
   398                           ; 2 bytes @ 0x4
   399  0074                     	ds	2
   400  0076                     ?___awdiv:
   401  0076                     ___awdiv@divisor:	
   402                           ; 2 bytes @ 0x6
   403                           
   404                           
   405                           ; 2 bytes @ 0x6
   406  0076                     	ds	2
   407  0078                     ___awdiv@dividend:
   408                           
   409                           ; 2 bytes @ 0x8
   410  0078                     	ds	2
   411  007A                     ??___awdiv:
   412                           
   413                           ; 1 bytes @ 0xA
   414  007A                     	ds	1
   415  007B                     ??_mapear:
   416                           
   417                           ; 1 bytes @ 0xB
   418  007B                     	ds	2
   419  007D                     mapear@adresval:
   420                           
   421                           ; 1 bytes @ 0xD
   422  007D                     	ds	1
   423                           
   424                           	psect	cstackBANK0
   425  0020                     __pcstackBANK0:
   426  0020                     ___awdiv@counter:
   427                           
   428                           ; 1 bytes @ 0x0
   429  0020                     	ds	1
   430  0021                     ___awdiv@sign:
   431                           
   432                           ; 1 bytes @ 0x1
   433  0021                     	ds	1
   434  0022                     ___awdiv@quotient:
   435                           
   436                           ; 2 bytes @ 0x2
   437  0022                     	ds	2
   438  0024                     ??_isr:
   439                           
   440                           ; 1 bytes @ 0x4
   441  0024                     	ds	6
   442  002A                     ?_write:
   443  002A                     write@address:	
   444                           ; 1 bytes @ 0xA
   445                           
   446                           
   447                           ; 1 bytes @ 0xA
   448  002A                     	ds	1
   449  002B                     ??_write:
   450  002B                     write@data:	
   451                           ; 1 bytes @ 0xB
   452                           
   453                           
   454                           ; 1 bytes @ 0xB
   455  002B                     	ds	1
   456  002C                     ??_main:
   457                           
   458                           ; 1 bytes @ 0xC
   459  002C                     	ds	1
   460                           
   461                           	psect	maintext
   462  01A2                     __pmaintext:	
   463 ;;
   464 ;;Main: autosize = 0, tempsize = 1, incstack = 0, save=0
   465 ;;
   466 ;; *************** function _main *****************
   467 ;; Defined at:
   468 ;;		line 219 in file "proyectovacasfisico.c"
   469 ;; Parameters:    Size  Location     Type
   470 ;;		None
   471 ;; Auto vars:     Size  Location     Type
   472 ;;		None
   473 ;; Return value:  Size  Location     Type
   474 ;;                  1    wreg      void 
   475 ;; Registers used:
   476 ;;		wreg, status,2, status,0, pclath, cstack
   477 ;; Tracked objects:
   478 ;;		On entry : B00/0
   479 ;;		On exit  : 0/0
   480 ;;		Unchanged: 0/0
   481 ;; Data sizes:     COMMON   BANK0   BANK1   BANK3   BANK2
   482 ;;      Params:         0       0       0       0       0
   483 ;;      Locals:         0       0       0       0       0
   484 ;;      Temps:          0       1       0       0       0
   485 ;;      Totals:         0       1       0       0       0
   486 ;;Total ram usage:        1 bytes
   487 ;; Hardware stack levels required when called:    4
   488 ;; This function calls:
   489 ;;		_write
   490 ;; This function is called by:
   491 ;;		Startup code after reset
   492 ;; This function uses a non-reentrant model
   493 ;;
   494                           
   495                           
   496                           ;psect for function _main
   497  01A2                     _main:
   498  01A2                     l1356:	
   499                           ;incstack = 0
   500                           ; Regs used in _main: [wreg+status,2+status,0+pclath+cstack]
   501                           
   502                           
   503                           ;proyectovacasfisico.c: 222:     OSCCONbits.IRCF = 0b111;
   504  01A2  3070               	movlw	112
   505  01A3  1683               	bsf	3,5	;RP0=1, select bank1
   506  01A4  1303               	bcf	3,6	;RP1=0, select bank1
   507  01A5  048F               	iorwf	15,f	;volatile
   508  01A6                     l1358:
   509                           
   510                           ;proyectovacasfisico.c: 223:     OSCCONbits.SCS = 1;
   511  01A6  140F               	bsf	15,0	;volatile
   512  01A7                     l1360:
   513                           
   514                           ;proyectovacasfisico.c: 225:     ANSELH = 0;
   515  01A7  1683               	bsf	3,5	;RP0=1, select bank3
   516  01A8  1703               	bsf	3,6	;RP1=1, select bank3
   517  01A9  0189               	clrf	9	;volatile
   518  01AA                     l1362:
   519                           
   520                           ;proyectovacasfisico.c: 226:     ANSELbits.ANS0 = 1;
   521  01AA  1408               	bsf	8,0	;volatile
   522  01AB                     l1364:
   523                           
   524                           ;proyectovacasfisico.c: 227:     ANSELbits.ANS1 = 1;
   525  01AB  1488               	bsf	8,1	;volatile
   526  01AC                     l1366:
   527                           
   528                           ;proyectovacasfisico.c: 228:     ANSELbits.ANS2 = 1;
   529  01AC  1508               	bsf	8,2	;volatile
   530  01AD                     l1368:
   531                           
   532                           ;proyectovacasfisico.c: 229:     ANSELbits.ANS3 = 1;
   533  01AD  1588               	bsf	8,3	;volatile
   534  01AE                     l1370:
   535                           
   536                           ;proyectovacasfisico.c: 230:     ANSELbits.ANS4 = 1;
   537  01AE  1608               	bsf	8,4	;volatile
   538  01AF                     l1372:
   539                           
   540                           ;proyectovacasfisico.c: 231:     ANSELbits.ANS5 = 1;
   541  01AF  1688               	bsf	8,5	;volatile
   542  01B0                     l1374:
   543                           
   544                           ;proyectovacasfisico.c: 232:     TRISA = 0b11111111;
   545  01B0  30FF               	movlw	255
   546  01B1  1683               	bsf	3,5	;RP0=1, select bank1
   547  01B2  1303               	bcf	3,6	;RP1=0, select bank1
   548  01B3  0085               	movwf	5	;volatile
   549  01B4                     l1376:
   550                           
   551                           ;proyectovacasfisico.c: 233:     TRISB = 7;
   552  01B4  3007               	movlw	7
   553  01B5  0086               	movwf	6	;volatile
   554  01B6                     l1378:
   555                           
   556                           ;proyectovacasfisico.c: 234:     TRISC = 0;
   557  01B6  0187               	clrf	7	;volatile
   558  01B7                     l1380:
   559                           
   560                           ;proyectovacasfisico.c: 235:     TRISD = 0;
   561  01B7  0188               	clrf	8	;volatile
   562  01B8                     l1382:
   563                           
   564                           ;proyectovacasfisico.c: 236:     TRISE = 1;
   565  01B8  3001               	movlw	1
   566  01B9  0089               	movwf	9	;volatile
   567  01BA                     l1384:
   568                           
   569                           ;proyectovacasfisico.c: 237:     PORTA = 0;
   570  01BA  1283               	bcf	3,5	;RP0=0, select bank0
   571  01BB  1303               	bcf	3,6	;RP1=0, select bank0
   572  01BC  0185               	clrf	5	;volatile
   573  01BD                     l1386:
   574                           
   575                           ;proyectovacasfisico.c: 238:     PORTC = 0;
   576  01BD  0187               	clrf	7	;volatile
   577  01BE                     l1388:
   578                           
   579                           ;proyectovacasfisico.c: 239:     PORTB = 0;
   580  01BE  0186               	clrf	6	;volatile
   581  01BF                     l1390:
   582                           
   583                           ;proyectovacasfisico.c: 240:     PORTD = 0;
   584  01BF  0188               	clrf	8	;volatile
   585  01C0                     l1392:
   586                           
   587                           ;proyectovacasfisico.c: 241:     PORTE = 0;
   588  01C0  0189               	clrf	9	;volatile
   589  01C1                     l1394:
   590                           
   591                           ;proyectovacasfisico.c: 243:     OPTION_REGbits.nRBPU = 0;
   592  01C1  1683               	bsf	3,5	;RP0=1, select bank1
   593  01C2  1303               	bcf	3,6	;RP1=0, select bank1
   594  01C3  1381               	bcf	1,7	;volatile
   595  01C4                     l1396:
   596                           
   597                           ;proyectovacasfisico.c: 244:     WPUBbits.WPUB = 7;
   598  01C4  3007               	movlw	7
   599  01C5  0095               	movwf	21	;volatile
   600  01C6                     l1398:
   601                           
   602                           ;proyectovacasfisico.c: 247:     IOCBbits.IOCB0 = 1;
   603  01C6  1416               	bsf	22,0	;volatile
   604  01C7                     l1400:
   605                           
   606                           ;proyectovacasfisico.c: 248:     IOCBbits.IOCB1 = 1;
   607  01C7  1496               	bsf	22,1	;volatile
   608  01C8                     l1402:
   609                           
   610                           ;proyectovacasfisico.c: 249:     IOCBbits.IOCB2 = 1;
   611  01C8  1516               	bsf	22,2	;volatile
   612                           
   613                           ;proyectovacasfisico.c: 251:     ADCON0bits.ADCS = 2;
   614  01C9  1283               	bcf	3,5	;RP0=0, select bank0
   615  01CA  1303               	bcf	3,6	;RP1=0, select bank0
   616  01CB  081F               	movf	31,w	;volatile
   617  01CC  393F               	andlw	-193
   618  01CD  3880               	iorlw	128
   619  01CE  009F               	movwf	31	;volatile
   620  01CF                     l1404:
   621                           
   622                           ;proyectovacasfisico.c: 252:     ADCON0bits.CHS0 = 0;
   623  01CF  111F               	bcf	31,2	;volatile
   624  01D0                     l1406:
   625                           
   626                           ;proyectovacasfisico.c: 253:     ADCON1bits.VCFG1 = 0;
   627  01D0  1683               	bsf	3,5	;RP0=1, select bank1
   628  01D1  1303               	bcf	3,6	;RP1=0, select bank1
   629  01D2  129F               	bcf	31,5	;volatile
   630  01D3                     l1408:
   631                           
   632                           ;proyectovacasfisico.c: 254:     ADCON1bits.VCFG0 = 0;
   633  01D3  121F               	bcf	31,4	;volatile
   634  01D4                     l1410:
   635                           
   636                           ;proyectovacasfisico.c: 255:     ADCON1bits.ADFM = 0;
   637  01D4  139F               	bcf	31,7	;volatile
   638  01D5                     l1412:
   639                           
   640                           ;proyectovacasfisico.c: 256:     ADCON0bits.ADON = 1;
   641  01D5  1283               	bcf	3,5	;RP0=0, select bank0
   642  01D6  1303               	bcf	3,6	;RP1=0, select bank0
   643  01D7  141F               	bsf	31,0	;volatile
   644  01D8                     l1414:
   645                           
   646                           ;proyectovacasfisico.c: 257:     _delay((unsigned long)((50)*(8000000/4000000.0)));
   647  01D8  3020               	movlw	32
   648  01D9  1283               	bcf	3,5	;RP0=0, select bank0
   649  01DA  1303               	bcf	3,6	;RP1=0, select bank0
   650  01DB  00AC               	movwf	??_main
   651  01DC                     u597:
   652  01DC  0BAC               	decfsz	??_main,f
   653  01DD  29DC               	goto	u597
   654  01DE  0000               	nop
   655  01DF                     l1416:
   656                           
   657                           ;proyectovacasfisico.c: 260:     TRISCbits.TRISC2 = 1;
   658  01DF  1683               	bsf	3,5	;RP0=1, select bank1
   659  01E0  1303               	bcf	3,6	;RP1=0, select bank1
   660  01E1  1507               	bsf	7,2	;volatile
   661  01E2                     l1418:
   662                           
   663                           ;proyectovacasfisico.c: 261:     PR2 = 250;
   664  01E2  30FA               	movlw	250
   665  01E3  0092               	movwf	18	;volatile
   666                           
   667                           ;proyectovacasfisico.c: 262:     CCP1CONbits.P1M = 0;
   668  01E4  303F               	movlw	-193
   669  01E5  1283               	bcf	3,5	;RP0=0, select bank0
   670  01E6  1303               	bcf	3,6	;RP1=0, select bank0
   671  01E7  0597               	andwf	23,f	;volatile
   672                           
   673                           ;proyectovacasfisico.c: 263:     CCP1CONbits.CCP1M = 0b1100;
   674  01E8  0817               	movf	23,w	;volatile
   675  01E9  39F0               	andlw	-16
   676  01EA  380C               	iorlw	12
   677  01EB  0097               	movwf	23	;volatile
   678  01EC                     l1420:
   679                           
   680                           ;proyectovacasfisico.c: 264:     CCPR1L = 0x0f;
   681  01EC  300F               	movlw	15
   682  01ED  0095               	movwf	21	;volatile
   683  01EE                     l1422:
   684                           
   685                           ;proyectovacasfisico.c: 265:     CCP1CONbits.DC1B = 0;
   686  01EE  30CF               	movlw	-49
   687  01EF  0597               	andwf	23,f	;volatile
   688  01F0                     l1424:
   689                           
   690                           ;proyectovacasfisico.c: 267:     TRISCbits.TRISC1 = 1;
   691  01F0  1683               	bsf	3,5	;RP0=1, select bank1
   692  01F1  1303               	bcf	3,6	;RP1=0, select bank1
   693  01F2  1487               	bsf	7,1	;volatile
   694  01F3                     l1426:
   695                           
   696                           ;proyectovacasfisico.c: 268:     CCP2CONbits.CCP2M = 0b1100;
   697  01F3  1283               	bcf	3,5	;RP0=0, select bank0
   698  01F4  1303               	bcf	3,6	;RP1=0, select bank0
   699  01F5  081D               	movf	29,w	;volatile
   700  01F6  39F0               	andlw	-16
   701  01F7  380C               	iorlw	12
   702  01F8  009D               	movwf	29	;volatile
   703  01F9                     l1428:
   704                           
   705                           ;proyectovacasfisico.c: 269:     CCPR2L = 0x0f;
   706  01F9  300F               	movlw	15
   707  01FA  009B               	movwf	27	;volatile
   708  01FB                     l1430:
   709                           
   710                           ;proyectovacasfisico.c: 270:     CCP2CONbits.DC2B1 = 0;
   711  01FB  129D               	bcf	29,5	;volatile
   712  01FC                     l1432:
   713                           
   714                           ;proyectovacasfisico.c: 272:     OPTION_REGbits.T0CS = 0;
   715  01FC  1683               	bsf	3,5	;RP0=1, select bank1
   716  01FD  1303               	bcf	3,6	;RP1=0, select bank1
   717  01FE  1281               	bcf	1,5	;volatile
   718  01FF                     l1434:
   719                           
   720                           ;proyectovacasfisico.c: 273:     OPTION_REGbits.PSA = 0;
   721  01FF  1181               	bcf	1,3	;volatile
   722                           
   723                           ;proyectovacasfisico.c: 274:     OPTION_REGbits.PS = 7;
   724  0200  3007               	movlw	7
   725  0201  0481               	iorwf	1,f	;volatile
   726  0202                     l1436:
   727                           
   728                           ;proyectovacasfisico.c: 275:     TMR0 = 100;
   729  0202  3064               	movlw	100
   730  0203  1283               	bcf	3,5	;RP0=0, select bank0
   731  0204  1303               	bcf	3,6	;RP1=0, select bank0
   732  0205  0081               	movwf	1	;volatile
   733  0206                     l1438:
   734                           
   735                           ;proyectovacasfisico.c: 277:     PIR1bits.TMR2IF = 0;
   736  0206  108C               	bcf	12,1	;volatile
   737  0207                     l1440:
   738                           
   739                           ;proyectovacasfisico.c: 278:     T2CONbits.T2CKPS = 0b11;
   740  0207  3003               	movlw	3
   741  0208  0492               	iorwf	18,f	;volatile
   742  0209                     l1442:
   743                           
   744                           ;proyectovacasfisico.c: 279:     T2CONbits.TMR2ON = 1;
   745  0209  1512               	bsf	18,2	;volatile
   746  020A                     l201:	
   747                           ;proyectovacasfisico.c: 280:     while(PIR1bits.TMR2IF == 0);
   748                           
   749  020A  1C8C               	btfss	12,1	;volatile
   750  020B  2A0D               	goto	u571
   751  020C  2A0E               	goto	u570
   752  020D                     u571:
   753  020D  2A0A               	goto	l201
   754  020E                     u570:
   755  020E                     l203:
   756                           
   757                           ;proyectovacasfisico.c: 281:     PIR1bits.TMR2IF = 0;
   758  020E  108C               	bcf	12,1	;volatile
   759                           
   760                           ;proyectovacasfisico.c: 282:     TRISCbits.TRISC2 = 0;
   761  020F  1683               	bsf	3,5	;RP0=1, select bank1
   762  0210  1303               	bcf	3,6	;RP1=0, select bank1
   763  0211  1107               	bcf	7,2	;volatile
   764                           
   765                           ;proyectovacasfisico.c: 283:     TRISCbits.TRISC1 = 0;
   766  0212  1087               	bcf	7,1	;volatile
   767                           
   768                           ;proyectovacasfisico.c: 285:     TXSTAbits.SYNC = 0;
   769  0213  1218               	bcf	24,4	;volatile
   770                           
   771                           ;proyectovacasfisico.c: 286:     TXSTAbits.BRGH = 1;
   772  0214  1518               	bsf	24,2	;volatile
   773                           
   774                           ;proyectovacasfisico.c: 288:     BAUDCTLbits.BRG16 = 1;
   775  0215  1683               	bsf	3,5	;RP0=1, select bank3
   776  0216  1703               	bsf	3,6	;RP1=1, select bank3
   777  0217  1587               	bsf	7,3	;volatile
   778  0218                     l1444:
   779                           
   780                           ;proyectovacasfisico.c: 290:     SPBRG = 207;
   781  0218  30CF               	movlw	207
   782  0219  1683               	bsf	3,5	;RP0=1, select bank1
   783  021A  1303               	bcf	3,6	;RP1=0, select bank1
   784  021B  0099               	movwf	25	;volatile
   785  021C                     l1446:
   786                           
   787                           ;proyectovacasfisico.c: 291:     SPBRGH = 0;
   788  021C  019A               	clrf	26	;volatile
   789  021D                     l1448:
   790                           
   791                           ;proyectovacasfisico.c: 293:     RCSTAbits.SPEN = 1;
   792  021D  1283               	bcf	3,5	;RP0=0, select bank0
   793  021E  1303               	bcf	3,6	;RP1=0, select bank0
   794  021F  1798               	bsf	24,7	;volatile
   795  0220                     l1450:
   796                           
   797                           ;proyectovacasfisico.c: 294:     RCSTAbits.RX9 = 0;
   798  0220  1318               	bcf	24,6	;volatile
   799  0221                     l1452:
   800                           
   801                           ;proyectovacasfisico.c: 295:     RCSTAbits.CREN = 1;
   802  0221  1618               	bsf	24,4	;volatile
   803  0222                     l1454:
   804                           
   805                           ;proyectovacasfisico.c: 297:     TXSTAbits.TXEN = 1;
   806  0222  1683               	bsf	3,5	;RP0=1, select bank1
   807  0223  1303               	bcf	3,6	;RP1=0, select bank1
   808  0224  1698               	bsf	24,5	;volatile
   809  0225                     l1456:
   810                           
   811                           ;proyectovacasfisico.c: 299:     PIR1bits.ADIF = 0;
   812  0225  1283               	bcf	3,5	;RP0=0, select bank0
   813  0226  1303               	bcf	3,6	;RP1=0, select bank0
   814  0227  130C               	bcf	12,6	;volatile
   815  0228                     l1458:
   816                           
   817                           ;proyectovacasfisico.c: 300:     PIE1bits.ADIE = 1;
   818  0228  1683               	bsf	3,5	;RP0=1, select bank1
   819  0229  1303               	bcf	3,6	;RP1=0, select bank1
   820  022A  170C               	bsf	12,6	;volatile
   821  022B                     l1460:
   822                           
   823                           ;proyectovacasfisico.c: 301:     INTCONbits.PEIE = 1;
   824  022B  170B               	bsf	11,6	;volatile
   825  022C                     l1462:
   826                           
   827                           ;proyectovacasfisico.c: 302:     INTCONbits.GIE = 1;
   828  022C  178B               	bsf	11,7	;volatile
   829  022D                     l1464:
   830                           
   831                           ;proyectovacasfisico.c: 303:     INTCONbits.T0IE = 1;
   832  022D  168B               	bsf	11,5	;volatile
   833  022E                     l1466:
   834                           
   835                           ;proyectovacasfisico.c: 304:     INTCONbits.T0IF = 0;
   836  022E  110B               	bcf	11,2	;volatile
   837  022F                     l1468:
   838                           
   839                           ;proyectovacasfisico.c: 305:     INTCONbits.RBIE = 1;
   840  022F  158B               	bsf	11,3	;volatile
   841  0230                     l1470:
   842                           
   843                           ;proyectovacasfisico.c: 306:     ADCON0bits.GO = 1;
   844  0230  1283               	bcf	3,5	;RP0=0, select bank0
   845  0231  1303               	bcf	3,6	;RP1=0, select bank0
   846  0232  149F               	bsf	31,1	;volatile
   847  0233                     l1472:
   848  0233  032D               	decf	_writepos,w
   849  0234  1D03               	btfss	3,2
   850  0235  2A37               	goto	u581
   851  0236  2A38               	goto	u580
   852  0237                     u581:
   853  0237  2A33               	goto	l1472
   854  0238                     u580:
   855  0238                     l1474:
   856                           
   857                           ;proyectovacasfisico.c: 309:                 write(CCPR1L, addpotccp1);
   858  0238  083C               	movf	_addpotccp1,w
   859  0239  00AC               	movwf	??_main
   860  023A  082C               	movf	??_main,w
   861  023B  00AA               	movwf	write@address
   862  023C  0815               	movf	21,w	;volatile
   863  023D  120A  118A  2313  120A  118A  	fcall	_write
   864                           
   865                           ;proyectovacasfisico.c: 310:                 write(CCPR2L, addpotccp2);
   866  0242  1283               	bcf	3,5	;RP0=0, select bank0
   867  0243  1303               	bcf	3,6	;RP1=0, select bank0
   868  0244  083B               	movf	_addpotccp2,w
   869  0245  00AC               	movwf	??_main
   870  0246  082C               	movf	??_main,w
   871  0247  00AA               	movwf	write@address
   872  0248  081B               	movf	27,w	;volatile
   873  0249  120A  118A  2313  120A  118A  	fcall	_write
   874                           
   875                           ;proyectovacasfisico.c: 311:                 write(valservo0, addpot0);
   876  024E  1283               	bcf	3,5	;RP0=0, select bank0
   877  024F  1303               	bcf	3,6	;RP1=0, select bank0
   878  0250  083A               	movf	_addpot0,w
   879  0251  00AC               	movwf	??_main
   880  0252  082C               	movf	??_main,w
   881  0253  00AA               	movwf	write@address
   882  0254  0832               	movf	_valservo0,w
   883  0255  120A  118A  2313  120A  118A  	fcall	_write
   884                           
   885                           ;proyectovacasfisico.c: 312:                 write(valservo1, addpot1);
   886  025A  1283               	bcf	3,5	;RP0=0, select bank0
   887  025B  1303               	bcf	3,6	;RP1=0, select bank0
   888  025C  0839               	movf	_addpot1,w
   889  025D  00AC               	movwf	??_main
   890  025E  082C               	movf	??_main,w
   891  025F  00AA               	movwf	write@address
   892  0260  0831               	movf	_valservo1,w
   893  0261  120A  118A  2313  120A  118A  	fcall	_write
   894                           
   895                           ;proyectovacasfisico.c: 313:                 write(valservo2, addpot2);
   896  0266  1283               	bcf	3,5	;RP0=0, select bank0
   897  0267  1303               	bcf	3,6	;RP1=0, select bank0
   898  0268  0838               	movf	_addpot2,w
   899  0269  00AC               	movwf	??_main
   900  026A  082C               	movf	??_main,w
   901  026B  00AA               	movwf	write@address
   902  026C  0830               	movf	_valservo2,w
   903  026D  120A  118A  2313  120A  118A  	fcall	_write
   904                           
   905                           ;proyectovacasfisico.c: 314:                 write(valservo3, addpot3);
   906  0272  1283               	bcf	3,5	;RP0=0, select bank0
   907  0273  1303               	bcf	3,6	;RP1=0, select bank0
   908  0274  0837               	movf	_addpot3,w
   909  0275  00AC               	movwf	??_main
   910  0276  082C               	movf	??_main,w
   911  0277  00AA               	movwf	write@address
   912  0278  082F               	movf	_valservo3,w
   913  0279  120A  118A  2313  120A  118A  	fcall	_write
   914  027E                     l1476:
   915                           
   916                           ;proyectovacasfisico.c: 315:                 writepos = 0;}}
   917  027E  1283               	bcf	3,5	;RP0=0, select bank0
   918  027F  1303               	bcf	3,6	;RP1=0, select bank0
   919  0280  01AD               	clrf	_writepos
   920  0281  2A33               	goto	l1472
   921  0282  120A  118A  2810   	ljmp	start
   922  0285                     __end_of_main:
   923                           
   924                           	psect	text1
   925  0313                     __ptext1:	
   926 ;; *************** function _write *****************
   927 ;; Defined at:
   928 ;;		line 61 in file "proyectovacasfisico.c"
   929 ;; Parameters:    Size  Location     Type
   930 ;;  data            1    wreg     unsigned char 
   931 ;;  address         1   10[BANK0 ] unsigned char 
   932 ;; Auto vars:     Size  Location     Type
   933 ;;  data            1   11[BANK0 ] unsigned char 
   934 ;; Return value:  Size  Location     Type
   935 ;;                  1    wreg      void 
   936 ;; Registers used:
   937 ;;		wreg
   938 ;; Tracked objects:
   939 ;;		On entry : 0/0
   940 ;;		On exit  : 0/0
   941 ;;		Unchanged: 0/0
   942 ;; Data sizes:     COMMON   BANK0   BANK1   BANK3   BANK2
   943 ;;      Params:         0       1       0       0       0
   944 ;;      Locals:         0       1       0       0       0
   945 ;;      Temps:          0       0       0       0       0
   946 ;;      Totals:         0       2       0       0       0
   947 ;;Total ram usage:        2 bytes
   948 ;; Hardware stack levels used:    1
   949 ;; Hardware stack levels required when called:    3
   950 ;; This function calls:
   951 ;;		Nothing
   952 ;; This function is called by:
   953 ;;		_main
   954 ;; This function uses a non-reentrant model
   955 ;;
   956                           
   957                           
   958                           ;psect for function _write
   959  0313                     _write:
   960                           
   961                           ;incstack = 0
   962                           ; Regs used in _write: [wreg]
   963                           ;write@data stored from wreg
   964  0313  1283               	bcf	3,5	;RP0=0, select bank0
   965  0314  1303               	bcf	3,6	;RP1=0, select bank0
   966  0315  00AB               	movwf	write@data
   967  0316                     l1238:
   968                           
   969                           ;proyectovacasfisico.c: 62:     EEADR = address;
   970  0316  082A               	movf	write@address,w
   971  0317  1283               	bcf	3,5	;RP0=0, select bank2
   972  0318  1703               	bsf	3,6	;RP1=1, select bank2
   973  0319  008D               	movwf	13	;volatile
   974                           
   975                           ;proyectovacasfisico.c: 63:     EEDAT = data;
   976  031A  1283               	bcf	3,5	;RP0=0, select bank0
   977  031B  1303               	bcf	3,6	;RP1=0, select bank0
   978  031C  082B               	movf	write@data,w
   979  031D  1283               	bcf	3,5	;RP0=0, select bank2
   980  031E  1703               	bsf	3,6	;RP1=1, select bank2
   981  031F  008C               	movwf	12	;volatile
   982  0320                     l1240:
   983                           
   984                           ;proyectovacasfisico.c: 65:     EECON1bits.EEPGD = 0;
   985  0320  1683               	bsf	3,5	;RP0=1, select bank3
   986  0321  1703               	bsf	3,6	;RP1=1, select bank3
   987  0322  138C               	bcf	12,7	;volsfr
   988  0323                     l1242:
   989                           
   990                           ;proyectovacasfisico.c: 66:     EECON1bits.WREN = 1;
   991  0323  150C               	bsf	12,2	;volsfr
   992  0324                     l1244:
   993                           
   994                           ;proyectovacasfisico.c: 68:     INTCONbits.GIE = 0;
   995  0324  138B               	bcf	11,7	;volatile
   996                           
   997                           ;proyectovacasfisico.c: 70:     EECON2 = 0x55;
   998  0325  3055               	movlw	85
   999  0326  008D               	movwf	13	;volsfr
  1000                           
  1001                           ;proyectovacasfisico.c: 71:     EECON2 = 0xAA;
  1002  0327  30AA               	movlw	170
  1003  0328  008D               	movwf	13	;volsfr
  1004  0329                     l1246:
  1005                           
  1006                           ;proyectovacasfisico.c: 72:     EECON1bits.WR = 1;
  1007  0329  148C               	bsf	12,1	;volsfr
  1008  032A                     l138:	
  1009                           ;proyectovacasfisico.c: 74:     while(PIR2bits.EEIF==0);
  1010                           
  1011  032A  1283               	bcf	3,5	;RP0=0, select bank0
  1012  032B  1303               	bcf	3,6	;RP1=0, select bank0
  1013  032C  1E0D               	btfss	13,4	;volatile
  1014  032D  2B2F               	goto	u461
  1015  032E  2B30               	goto	u460
  1016  032F                     u461:
  1017  032F  2B2A               	goto	l138
  1018  0330                     u460:
  1019  0330                     l140:
  1020                           
  1021                           ;proyectovacasfisico.c: 75:     PIR2bits.EEIF = 0;
  1022  0330  120D               	bcf	13,4	;volatile
  1023                           
  1024                           ;proyectovacasfisico.c: 77:     INTCONbits.GIE = 1;
  1025  0331  178B               	bsf	11,7	;volatile
  1026                           
  1027                           ;proyectovacasfisico.c: 78:     EECON1bits.WREN = 0;
  1028  0332  1683               	bsf	3,5	;RP0=1, select bank3
  1029  0333  1703               	bsf	3,6	;RP1=1, select bank3
  1030  0334  110C               	bcf	12,2	;volsfr
  1031  0335                     l141:
  1032  0335  0008               	return
  1033  0336                     __end_of_write:
  1034                           
  1035                           	psect	text2
  1036  0045                     __ptext2:	
  1037 ;; *************** function _isr *****************
  1038 ;; Defined at:
  1039 ;;		line 111 in file "proyectovacasfisico.c"
  1040 ;; Parameters:    Size  Location     Type
  1041 ;;		None
  1042 ;; Auto vars:     Size  Location     Type
  1043 ;;		None
  1044 ;; Return value:  Size  Location     Type
  1045 ;;                  1    wreg      void 
  1046 ;; Registers used:
  1047 ;;		wreg, fsr0l, fsr0h, status,2, status,0, pclath, cstack
  1048 ;; Tracked objects:
  1049 ;;		On entry : 0/0
  1050 ;;		On exit  : 0/0
  1051 ;;		Unchanged: 0/0
  1052 ;; Data sizes:     COMMON   BANK0   BANK1   BANK3   BANK2
  1053 ;;      Params:         0       0       0       0       0
  1054 ;;      Locals:         0       0       0       0       0
  1055 ;;      Temps:          0       6       0       0       0
  1056 ;;      Totals:         0       6       0       0       0
  1057 ;;Total ram usage:        6 bytes
  1058 ;; Hardware stack levels used:    1
  1059 ;; Hardware stack levels required when called:    2
  1060 ;; This function calls:
  1061 ;;		_mapear
  1062 ;;		_read
  1063 ;; This function is called by:
  1064 ;;		Interrupt level 1
  1065 ;; This function uses a non-reentrant model
  1066 ;;
  1067                           
  1068                           
  1069                           ;psect for function _isr
  1070  0045                     _isr:
  1071  0045                     i1l1256:
  1072                           
  1073                           ;proyectovacasfisico.c: 113:     if (RBIF == 1) {
  1074  0045  1C0B               	btfss	11,0	;volatile
  1075  0046  2848               	goto	u47_21
  1076  0047  2849               	goto	u47_20
  1077  0048                     u47_21:
  1078  0048  28AA               	goto	i1l163
  1079  0049                     u47_20:
  1080  0049                     i1l1258:
  1081                           
  1082                           ;proyectovacasfisico.c: 114:         if (PORTBbits.RB0 == 0){
  1083  0049  1806               	btfsc	6,0	;volatile
  1084  004A  284C               	goto	u48_21
  1085  004B  284D               	goto	u48_20
  1086  004C                     u48_21:
  1087  004C  2850               	goto	i1l164
  1088  004D                     u48_20:
  1089  004D                     i1l1260:
  1090                           
  1091                           ;proyectovacasfisico.c: 115:             writepos = 1;
  1092  004D  01AD               	clrf	_writepos
  1093  004E  0AAD               	incf	_writepos,f
  1094                           
  1095                           ;proyectovacasfisico.c: 116:         }
  1096  004F  28A9               	goto	i1l165
  1097  0050                     i1l164:	
  1098                           ;proyectovacasfisico.c: 117:         else if (PORTBbits.RB1 == 0){
  1099                           
  1100  0050  1886               	btfsc	6,1	;volatile
  1101  0051  2853               	goto	u49_21
  1102  0052  2854               	goto	u49_20
  1103  0053                     u49_21:
  1104  0053  28A8               	goto	i1l166
  1105  0054                     u49_20:
  1106  0054  2898               	goto	i1l1270
  1107  0055                     i1l1264:
  1108                           
  1109                           ;proyectovacasfisico.c: 120:                     savedpos = 0;
  1110  0055  01AE               	clrf	_savedpos
  1111                           
  1112                           ;proyectovacasfisico.c: 121:                     break;
  1113  0056  28A9               	goto	i1l165
  1114  0057                     i1l170:	
  1115                           ;proyectovacasfisico.c: 122:                 case 0:
  1116                           
  1117                           
  1118                           ;proyectovacasfisico.c: 123:                     savedpos = 1;
  1119  0057  01AE               	clrf	_savedpos
  1120  0058  0AAE               	incf	_savedpos,f
  1121  0059                     i1l1266:
  1122                           
  1123                           ;proyectovacasfisico.c: 124:                     CCPR1L = read(addpotccp1);
  1124  0059  083C               	movf	_addpotccp1,w
  1125  005A  120A  118A  2357  120A  118A  	fcall	_read
  1126  005F  1283               	bcf	3,5	;RP0=0, select bank0
  1127  0060  1303               	bcf	3,6	;RP1=0, select bank0
  1128  0061  0095               	movwf	21	;volatile
  1129                           
  1130                           ;proyectovacasfisico.c: 125:                     CCPR2L = read(addpotccp2);
  1131  0062  083B               	movf	_addpotccp2,w
  1132  0063  120A  118A  2357  120A  118A  	fcall	_read
  1133  0068  1283               	bcf	3,5	;RP0=0, select bank0
  1134  0069  1303               	bcf	3,6	;RP1=0, select bank0
  1135  006A  009B               	movwf	27	;volatile
  1136                           
  1137                           ;proyectovacasfisico.c: 126:                     valservo0 = read(addpot0);
  1138  006B  083A               	movf	_addpot0,w
  1139  006C  120A  118A  2357  120A  118A  	fcall	_read
  1140  0071  1283               	bcf	3,5	;RP0=0, select bank0
  1141  0072  1303               	bcf	3,6	;RP1=0, select bank0
  1142  0073  00A4               	movwf	??_isr
  1143  0074  0824               	movf	??_isr,w
  1144  0075  00B2               	movwf	_valservo0
  1145                           
  1146                           ;proyectovacasfisico.c: 127:                     valservo1 = read(addpot1);
  1147  0076  0839               	movf	_addpot1,w
  1148  0077  120A  118A  2357  120A  118A  	fcall	_read
  1149  007C  1283               	bcf	3,5	;RP0=0, select bank0
  1150  007D  1303               	bcf	3,6	;RP1=0, select bank0
  1151  007E  00A4               	movwf	??_isr
  1152  007F  0824               	movf	??_isr,w
  1153  0080  00B1               	movwf	_valservo1
  1154                           
  1155                           ;proyectovacasfisico.c: 128:                     valservo2 = read(addpot2);
  1156  0081  0838               	movf	_addpot2,w
  1157  0082  120A  118A  2357  120A  118A  	fcall	_read
  1158  0087  1283               	bcf	3,5	;RP0=0, select bank0
  1159  0088  1303               	bcf	3,6	;RP1=0, select bank0
  1160  0089  00A4               	movwf	??_isr
  1161  008A  0824               	movf	??_isr,w
  1162  008B  00B0               	movwf	_valservo2
  1163                           
  1164                           ;proyectovacasfisico.c: 129:                     valservo3 = read(addpot3);
  1165  008C  0837               	movf	_addpot3,w
  1166  008D  120A  118A  2357  120A  118A  	fcall	_read
  1167  0092  1283               	bcf	3,5	;RP0=0, select bank0
  1168  0093  1303               	bcf	3,6	;RP1=0, select bank0
  1169  0094  00A4               	movwf	??_isr
  1170  0095  0824               	movf	??_isr,w
  1171  0096  00AF               	movwf	_valservo3
  1172                           
  1173                           ;proyectovacasfisico.c: 130:                     break;
  1174  0097  28A9               	goto	i1l165
  1175  0098                     i1l1270:
  1176  0098  082E               	movf	_savedpos,w
  1177  0099  00A4               	movwf	??_isr
  1178  009A  01A5               	clrf	??_isr+1
  1179                           
  1180                           ; Switch on 2 bytes has been partitioned into a top level switch of size 1, and 1 sub-sw
      +                          itches
  1181                           ; Switch size 1, requested type "simple"
  1182                           ; Number of cases is 1, Range of values is 0 to 0
  1183                           ; switch strategies available:
  1184                           ; Name         Instructions Cycles
  1185                           ; simple_byte            4     3 (average)
  1186                           ; direct_byte           11     8 (fixed)
  1187                           ; jumptable            260     6 (fixed)
  1188                           ;	Chosen strategy is simple_byte
  1189  009B  0825               	movf	??_isr+1,w
  1190  009C  3A00               	xorlw	0	; case 0
  1191  009D  1903               	skipnz
  1192  009E  28A0               	goto	i1l1538
  1193  009F  28A9               	goto	i1l165
  1194  00A0                     i1l1538:
  1195                           
  1196                           ; Switch size 1, requested type "simple"
  1197                           ; Number of cases is 2, Range of values is 0 to 1
  1198                           ; switch strategies available:
  1199                           ; Name         Instructions Cycles
  1200                           ; simple_byte            7     4 (average)
  1201                           ; direct_byte           14     8 (fixed)
  1202                           ; jumptable            260     6 (fixed)
  1203                           ;	Chosen strategy is simple_byte
  1204  00A0  0824               	movf	??_isr,w
  1205  00A1  3A00               	xorlw	0	; case 0
  1206  00A2  1903               	skipnz
  1207  00A3  2857               	goto	i1l170
  1208  00A4  3A01               	xorlw	1	; case 1
  1209  00A5  1903               	skipnz
  1210  00A6  2855               	goto	i1l1264
  1211  00A7  28A9               	goto	i1l165
  1212  00A8                     i1l166:	
  1213                           ;proyectovacasfisico.c: 133:         else if (PORTBbits.RB2 == 0){
  1214                           
  1215  00A8  0806               	movf	6,w	;volatile
  1216  00A9                     i1l165:
  1217                           
  1218                           ;proyectovacasfisico.c: 136:         INTCONbits.RBIF = 0;
  1219  00A9  100B               	bcf	11,0	;volatile
  1220  00AA                     i1l163:	
  1221                           ;proyectovacasfisico.c: 137:     }
  1222                           
  1223                           
  1224                           ;proyectovacasfisico.c: 138:     if (ADIF == 1) {
  1225  00AA  1F0C               	btfss	12,6	;volatile
  1226  00AB  28AD               	goto	u50_21
  1227  00AC  28AE               	goto	u50_20
  1228  00AD                     u50_21:
  1229  00AD  2932               	goto	i1l1306
  1230  00AE                     u50_20:
  1231  00AE                     i1l1272:
  1232                           
  1233                           ;proyectovacasfisico.c: 141:         if (savedpos == 0){
  1234  00AE  082E               	movf	_savedpos,w
  1235  00AF  1D03               	btfss	3,2
  1236  00B0  28B2               	goto	u51_21
  1237  00B1  28B3               	goto	u51_20
  1238  00B2                     u51_21:
  1239  00B2  2927               	goto	i1l1300
  1240  00B3                     u51_20:
  1241  00B3  2908               	goto	i1l1298
  1242  00B4                     i1l1276:
  1243                           
  1244                           ;proyectovacasfisico.c: 144:                 CCPR1L = (ADRESH>>1)+124;
  1245  00B4  081E               	movf	30,w	;volatile
  1246  00B5  00A4               	movwf	??_isr
  1247  00B6  1003               	clrc
  1248  00B7  0C24               	rrf	??_isr,w
  1249  00B8  3E7C               	addlw	124
  1250  00B9  0095               	movwf	21	;volatile
  1251                           
  1252                           ;proyectovacasfisico.c: 145:                 ADCON0bits.CHS = 1;
  1253  00BA  081F               	movf	31,w	;volatile
  1254  00BB  39C3               	andlw	-61
  1255  00BC  3804               	iorlw	4
  1256  00BD  009F               	movwf	31	;volatile
  1257                           
  1258                           ;proyectovacasfisico.c: 146:                 break;
  1259  00BE  2927               	goto	i1l1300
  1260  00BF                     i1l1278:
  1261                           
  1262                           ;proyectovacasfisico.c: 149:                 CCPR2L = (ADRESH>>1)+124;
  1263  00BF  081E               	movf	30,w	;volatile
  1264  00C0  00A4               	movwf	??_isr
  1265  00C1  1003               	clrc
  1266  00C2  0C24               	rrf	??_isr,w
  1267  00C3  3E7C               	addlw	124
  1268  00C4  009B               	movwf	27	;volatile
  1269                           
  1270                           ;proyectovacasfisico.c: 150:                 ADCON0bits.CHS = 2;
  1271  00C5  081F               	movf	31,w	;volatile
  1272  00C6  39C3               	andlw	-61
  1273  00C7  3808               	iorlw	8
  1274  00C8  009F               	movwf	31	;volatile
  1275                           
  1276                           ;proyectovacasfisico.c: 151:                 break;
  1277  00C9  2927               	goto	i1l1300
  1278  00CA                     i1l1280:
  1279                           
  1280                           ;proyectovacasfisico.c: 154:                 valservo0 = mapear(ADRESH);
  1281  00CA  081E               	movf	30,w	;volatile
  1282  00CB  120A  118A  2336  120A  118A  	fcall	_mapear
  1283  00D0  1283               	bcf	3,5	;RP0=0, select bank0
  1284  00D1  1303               	bcf	3,6	;RP1=0, select bank0
  1285  00D2  00A4               	movwf	??_isr
  1286  00D3  0824               	movf	??_isr,w
  1287  00D4  00B2               	movwf	_valservo0
  1288  00D5                     i1l1282:
  1289                           
  1290                           ;proyectovacasfisico.c: 155:                 ADCON0bits.CHS = 3;
  1291  00D5  081F               	movf	31,w	;volatile
  1292  00D6  39C3               	andlw	-61
  1293  00D7  380C               	iorlw	12
  1294  00D8  009F               	movwf	31	;volatile
  1295                           
  1296                           ;proyectovacasfisico.c: 156:                 break;
  1297  00D9  2927               	goto	i1l1300
  1298  00DA                     i1l1284:
  1299                           
  1300                           ;proyectovacasfisico.c: 159:                 valservo1 = mapear(ADRESH);
  1301  00DA  081E               	movf	30,w	;volatile
  1302  00DB  120A  118A  2336  120A  118A  	fcall	_mapear
  1303  00E0  1283               	bcf	3,5	;RP0=0, select bank0
  1304  00E1  1303               	bcf	3,6	;RP1=0, select bank0
  1305  00E2  00A4               	movwf	??_isr
  1306  00E3  0824               	movf	??_isr,w
  1307  00E4  00B1               	movwf	_valservo1
  1308  00E5                     i1l1286:
  1309                           
  1310                           ;proyectovacasfisico.c: 160:                 ADCON0bits.CHS = 4;
  1311  00E5  081F               	movf	31,w	;volatile
  1312  00E6  39C3               	andlw	-61
  1313  00E7  3810               	iorlw	16
  1314  00E8  009F               	movwf	31	;volatile
  1315                           
  1316                           ;proyectovacasfisico.c: 161:                 break;
  1317  00E9  2927               	goto	i1l1300
  1318  00EA                     i1l1288:
  1319                           
  1320                           ;proyectovacasfisico.c: 164:                 valservo2 = mapear(ADRESH);
  1321  00EA  081E               	movf	30,w	;volatile
  1322  00EB  120A  118A  2336  120A  118A  	fcall	_mapear
  1323  00F0  1283               	bcf	3,5	;RP0=0, select bank0
  1324  00F1  1303               	bcf	3,6	;RP1=0, select bank0
  1325  00F2  00A4               	movwf	??_isr
  1326  00F3  0824               	movf	??_isr,w
  1327  00F4  00B0               	movwf	_valservo2
  1328  00F5                     i1l1290:
  1329                           
  1330                           ;proyectovacasfisico.c: 165:                 ADCON0bits.CHS = 5;
  1331  00F5  081F               	movf	31,w	;volatile
  1332  00F6  39C3               	andlw	-61
  1333  00F7  3814               	iorlw	20
  1334  00F8  009F               	movwf	31	;volatile
  1335                           
  1336                           ;proyectovacasfisico.c: 166:                 break;
  1337  00F9  2927               	goto	i1l1300
  1338  00FA                     i1l1292:
  1339                           
  1340                           ;proyectovacasfisico.c: 169:                 valservo3 = mapear(ADRESH);
  1341  00FA  081E               	movf	30,w	;volatile
  1342  00FB  120A  118A  2336  120A  118A  	fcall	_mapear
  1343  0100  1283               	bcf	3,5	;RP0=0, select bank0
  1344  0101  1303               	bcf	3,6	;RP1=0, select bank0
  1345  0102  00A4               	movwf	??_isr
  1346  0103  0824               	movf	??_isr,w
  1347  0104  00AF               	movwf	_valservo3
  1348  0105                     i1l1294:
  1349                           
  1350                           ;proyectovacasfisico.c: 170:                 ADCON0bits.CHS = 0;
  1351  0105  30C3               	movlw	-61
  1352  0106  059F               	andwf	31,f	;volatile
  1353                           
  1354                           ;proyectovacasfisico.c: 171:                 break;
  1355  0107  2927               	goto	i1l1300
  1356  0108                     i1l1298:
  1357  0108  0C1F               	rrf	31,w	;volatile
  1358  0109  00A4               	movwf	??_isr
  1359  010A  0C24               	rrf	??_isr,w
  1360  010B  390F               	andlw	15
  1361  010C  00A5               	movwf	??_isr+1
  1362  010D  01A6               	clrf	??_isr+2
  1363                           
  1364                           ; Switch on 2 bytes has been partitioned into a top level switch of size 1, and 1 sub-sw
      +                          itches
  1365                           ; Switch size 1, requested type "simple"
  1366                           ; Number of cases is 1, Range of values is 0 to 0
  1367                           ; switch strategies available:
  1368                           ; Name         Instructions Cycles
  1369                           ; simple_byte            4     3 (average)
  1370                           ; direct_byte           11     8 (fixed)
  1371                           ; jumptable            260     6 (fixed)
  1372                           ;	Chosen strategy is simple_byte
  1373  010E  0826               	movf	??_isr+2,w
  1374  010F  3A00               	xorlw	0	; case 0
  1375  0110  1903               	skipnz
  1376  0111  2913               	goto	i1l1540
  1377  0112  2927               	goto	i1l1300
  1378  0113                     i1l1540:
  1379                           
  1380                           ; Switch size 1, requested type "simple"
  1381                           ; Number of cases is 6, Range of values is 0 to 5
  1382                           ; switch strategies available:
  1383                           ; Name         Instructions Cycles
  1384                           ; simple_byte           19    10 (average)
  1385                           ; direct_byte           26     8 (fixed)
  1386                           ; jumptable            260     6 (fixed)
  1387                           ;	Chosen strategy is simple_byte
  1388  0113  0825               	movf	??_isr+1,w
  1389  0114  3A00               	xorlw	0	; case 0
  1390  0115  1903               	skipnz
  1391  0116  28B4               	goto	i1l1276
  1392  0117  3A01               	xorlw	1	; case 1
  1393  0118  1903               	skipnz
  1394  0119  28BF               	goto	i1l1278
  1395  011A  3A03               	xorlw	3	; case 2
  1396  011B  1903               	skipnz
  1397  011C  28CA               	goto	i1l1280
  1398  011D  3A01               	xorlw	1	; case 3
  1399  011E  1903               	skipnz
  1400  011F  28DA               	goto	i1l1284
  1401  0120  3A07               	xorlw	7	; case 4
  1402  0121  1903               	skipnz
  1403  0122  28EA               	goto	i1l1288
  1404  0123  3A01               	xorlw	1	; case 5
  1405  0124  1903               	skipnz
  1406  0125  28FA               	goto	i1l1292
  1407  0126  2927               	goto	i1l1300
  1408  0127                     i1l1300:
  1409                           
  1410                           ;proyectovacasfisico.c: 174:         _delay((unsigned long)((20)*(8000000/4000000.0)));
  1411  0127  300C               	movlw	12
  1412  0128  1283               	bcf	3,5	;RP0=0, select bank0
  1413  0129  1303               	bcf	3,6	;RP1=0, select bank0
  1414  012A  00A4               	movwf	??_isr
  1415  012B                     u60_27:
  1416  012B  0BA4               	decfsz	??_isr,f
  1417  012C  292B               	goto	u60_27
  1418  012D  0000               	nop
  1419  012E                     i1l1302:
  1420                           
  1421                           ;proyectovacasfisico.c: 175:         PIR1bits.ADIF = 0;
  1422  012E  1283               	bcf	3,5	;RP0=0, select bank0
  1423  012F  1303               	bcf	3,6	;RP1=0, select bank0
  1424  0130  130C               	bcf	12,6	;volatile
  1425  0131                     i1l1304:
  1426                           
  1427                           ;proyectovacasfisico.c: 176:         ADCON0bits.GO = 1;
  1428  0131  149F               	bsf	31,1	;volatile
  1429  0132                     i1l1306:
  1430                           
  1431                           ;proyectovacasfisico.c: 180:     if (T0IF == 1){
  1432  0132  1D0B               	btfss	11,2	;volatile
  1433  0133  2935               	goto	u52_21
  1434  0134  2936               	goto	u52_20
  1435  0135                     u52_21:
  1436  0135  2999               	goto	i1l196
  1437  0136                     u52_20:
  1438  0136                     i1l1308:
  1439                           
  1440                           ;proyectovacasfisico.c: 182:         T0IF = 0;
  1441  0136  110B               	bcf	11,2	;volatile
  1442  0137                     i1l1310:
  1443                           
  1444                           ;proyectovacasfisico.c: 183:         TMR0 = 100;
  1445  0137  3064               	movlw	100
  1446  0138  0081               	movwf	1	;volatile
  1447  0139                     i1l1312:
  1448                           
  1449                           ;proyectovacasfisico.c: 185:         contservo0 = 0;
  1450  0139  01B6               	clrf	_contservo0
  1451  013A                     i1l1314:
  1452                           
  1453                           ;proyectovacasfisico.c: 186:         contservo1 = 0;
  1454  013A  01B5               	clrf	_contservo1
  1455  013B                     i1l1316:
  1456                           
  1457                           ;proyectovacasfisico.c: 187:         contservo2 = 0;
  1458  013B  01B4               	clrf	_contservo2
  1459  013C                     i1l1318:
  1460                           
  1461                           ;proyectovacasfisico.c: 188:         contservo3 = 0;
  1462  013C  01B3               	clrf	_contservo3
  1463  013D                     i1l1320:
  1464                           
  1465                           ;proyectovacasfisico.c: 190:         RD0 = 1;
  1466  013D  1408               	bsf	8,0	;volatile
  1467                           
  1468                           ;proyectovacasfisico.c: 191:         _delay((unsigned long)((465)*(8000000/4000000.0)));
  1469  013E  30B9               	movlw	185
  1470  013F  1283               	bcf	3,5	;RP0=0, select bank0
  1471  0140  1303               	bcf	3,6	;RP1=0, select bank0
  1472  0141  00A4               	movwf	??_isr
  1473  0142                     u61_27:
  1474  0142  2943               	nop2
  1475  0143  0BA4               	decfsz	??_isr,f
  1476  0144  2942               	goto	u61_27
  1477  0145  2946               	nop2
  1478                           
  1479                           ;proyectovacasfisico.c: 192:         while (contservo0 <= valservo0){
  1480  0146  294B               	goto	i1l1324
  1481  0147                     i1l1322:
  1482                           
  1483                           ;proyectovacasfisico.c: 193:             contservo0++;
  1484  0147  3001               	movlw	1
  1485  0148  00A4               	movwf	??_isr
  1486  0149  0824               	movf	??_isr,w
  1487  014A  07B6               	addwf	_contservo0,f
  1488  014B                     i1l1324:
  1489                           
  1490                           ;proyectovacasfisico.c: 192:         while (contservo0 <= valservo0){
  1491  014B  1283               	bcf	3,5	;RP0=0, select bank0
  1492  014C  1303               	bcf	3,6	;RP1=0, select bank0
  1493  014D  0836               	movf	_contservo0,w
  1494  014E  0232               	subwf	_valservo0,w
  1495  014F  1803               	skipnc
  1496  0150  2952               	goto	u53_21
  1497  0151  2953               	goto	u53_20
  1498  0152                     u53_21:
  1499  0152  2947               	goto	i1l1322
  1500  0153                     u53_20:
  1501  0153                     i1l186:
  1502                           
  1503                           ;proyectovacasfisico.c: 195:         RD0=0;
  1504  0153  1008               	bcf	8,0	;volatile
  1505                           
  1506                           ;proyectovacasfisico.c: 197:         RD1 = 1;
  1507  0154  1488               	bsf	8,1	;volatile
  1508  0155                     i1l1326:
  1509                           
  1510                           ;proyectovacasfisico.c: 198:         _delay((unsigned long)((465)*(8000000/4000000.0)));
  1511  0155  30B9               	movlw	185
  1512  0156  1283               	bcf	3,5	;RP0=0, select bank0
  1513  0157  1303               	bcf	3,6	;RP1=0, select bank0
  1514  0158  00A4               	movwf	??_isr
  1515  0159                     u62_27:
  1516  0159  295A               	nop2
  1517  015A  0BA4               	decfsz	??_isr,f
  1518  015B  2959               	goto	u62_27
  1519  015C  295D               	nop2
  1520                           
  1521                           ;proyectovacasfisico.c: 199:         while (contservo1 <= valservo1){
  1522  015D  2962               	goto	i1l1330
  1523  015E                     i1l1328:
  1524                           
  1525                           ;proyectovacasfisico.c: 200:             contservo1++;
  1526  015E  3001               	movlw	1
  1527  015F  00A4               	movwf	??_isr
  1528  0160  0824               	movf	??_isr,w
  1529  0161  07B5               	addwf	_contservo1,f
  1530  0162                     i1l1330:
  1531                           
  1532                           ;proyectovacasfisico.c: 199:         while (contservo1 <= valservo1){
  1533  0162  1283               	bcf	3,5	;RP0=0, select bank0
  1534  0163  1303               	bcf	3,6	;RP1=0, select bank0
  1535  0164  0835               	movf	_contservo1,w
  1536  0165  0231               	subwf	_valservo1,w
  1537  0166  1803               	skipnc
  1538  0167  2969               	goto	u54_21
  1539  0168  296A               	goto	u54_20
  1540  0169                     u54_21:
  1541  0169  295E               	goto	i1l1328
  1542  016A                     u54_20:
  1543  016A                     i1l189:
  1544                           
  1545                           ;proyectovacasfisico.c: 202:         RD1=0;
  1546  016A  1088               	bcf	8,1	;volatile
  1547                           
  1548                           ;proyectovacasfisico.c: 204:         RD2 = 1;
  1549  016B  1508               	bsf	8,2	;volatile
  1550  016C                     i1l1332:
  1551                           
  1552                           ;proyectovacasfisico.c: 205:         _delay((unsigned long)((465)*(8000000/4000000.0)));
  1553  016C  30B9               	movlw	185
  1554  016D  1283               	bcf	3,5	;RP0=0, select bank0
  1555  016E  1303               	bcf	3,6	;RP1=0, select bank0
  1556  016F  00A4               	movwf	??_isr
  1557  0170                     u63_27:
  1558  0170  2971               	nop2
  1559  0171  0BA4               	decfsz	??_isr,f
  1560  0172  2970               	goto	u63_27
  1561  0173  2974               	nop2
  1562                           
  1563                           ;proyectovacasfisico.c: 206:         while (contservo2 <= valservo2){
  1564  0174  2979               	goto	i1l1336
  1565  0175                     i1l1334:
  1566                           
  1567                           ;proyectovacasfisico.c: 207:             contservo2++;
  1568  0175  3001               	movlw	1
  1569  0176  00A4               	movwf	??_isr
  1570  0177  0824               	movf	??_isr,w
  1571  0178  07B4               	addwf	_contservo2,f
  1572  0179                     i1l1336:
  1573                           
  1574                           ;proyectovacasfisico.c: 206:         while (contservo2 <= valservo2){
  1575  0179  1283               	bcf	3,5	;RP0=0, select bank0
  1576  017A  1303               	bcf	3,6	;RP1=0, select bank0
  1577  017B  0834               	movf	_contservo2,w
  1578  017C  0230               	subwf	_valservo2,w
  1579  017D  1803               	skipnc
  1580  017E  2980               	goto	u55_21
  1581  017F  2981               	goto	u55_20
  1582  0180                     u55_21:
  1583  0180  2975               	goto	i1l1334
  1584  0181                     u55_20:
  1585  0181                     i1l192:
  1586                           
  1587                           ;proyectovacasfisico.c: 209:         RD2=0;
  1588  0181  1108               	bcf	8,2	;volatile
  1589                           
  1590                           ;proyectovacasfisico.c: 210:         RD3 = 1;
  1591  0182  1588               	bsf	8,3	;volatile
  1592  0183                     i1l1338:
  1593                           
  1594                           ;proyectovacasfisico.c: 211:         _delay((unsigned long)((465)*(8000000/4000000.0)));
  1595  0183  30B9               	movlw	185
  1596  0184  1283               	bcf	3,5	;RP0=0, select bank0
  1597  0185  1303               	bcf	3,6	;RP1=0, select bank0
  1598  0186  00A4               	movwf	??_isr
  1599  0187                     u64_27:
  1600  0187  2988               	nop2
  1601  0188  0BA4               	decfsz	??_isr,f
  1602  0189  2987               	goto	u64_27
  1603  018A  298B               	nop2
  1604                           
  1605                           ;proyectovacasfisico.c: 212:         while (contservo3 <= valservo3){
  1606  018B  2990               	goto	i1l1342
  1607  018C                     i1l1340:
  1608                           
  1609                           ;proyectovacasfisico.c: 213:             contservo3++;
  1610  018C  3001               	movlw	1
  1611  018D  00A4               	movwf	??_isr
  1612  018E  0824               	movf	??_isr,w
  1613  018F  07B3               	addwf	_contservo3,f
  1614  0190                     i1l1342:
  1615                           
  1616                           ;proyectovacasfisico.c: 212:         while (contservo3 <= valservo3){
  1617  0190  1283               	bcf	3,5	;RP0=0, select bank0
  1618  0191  1303               	bcf	3,6	;RP1=0, select bank0
  1619  0192  0833               	movf	_contservo3,w
  1620  0193  022F               	subwf	_valservo3,w
  1621  0194  1803               	skipnc
  1622  0195  2997               	goto	u56_21
  1623  0196  2998               	goto	u56_20
  1624  0197                     u56_21:
  1625  0197  298C               	goto	i1l1340
  1626  0198                     u56_20:
  1627  0198                     i1l195:
  1628                           
  1629                           ;proyectovacasfisico.c: 215:         RD3=0;
  1630  0198  1188               	bcf	8,3	;volatile
  1631  0199                     i1l196:
  1632  0199  0829               	movf	??_isr+5,w
  1633  019A  008A               	movwf	10
  1634  019B  0828               	movf	??_isr+4,w
  1635  019C  0084               	movwf	4
  1636  019D  0E27               	swapf	??_isr+3,w
  1637  019E  0083               	movwf	3
  1638  019F  0EFE               	swapf	btemp,f
  1639  01A0  0E7E               	swapf	btemp,w
  1640  01A1  0009               	retfie
  1641  01A2                     __end_of_isr:
  1642                           
  1643                           	psect	intentry
  1644  0004                     __pintentry:	
  1645                           ;incstack = 0
  1646                           ; Regs used in _isr: [wreg-fsr0h+status,2+status,0+pclath+cstack]
  1647                           
  1648  0004                     interrupt_function:
  1649  007E                     saved_w	set	btemp
  1650  0004  00FE               	movwf	btemp
  1651  0005  0E03               	swapf	3,w
  1652  0006  1283               	bcf	3,5	;RP0=0, select bank0
  1653  0007  1303               	bcf	3,6	;RP1=0, select bank0
  1654  0008  00A7               	movwf	??_isr+3
  1655  0009  0804               	movf	4,w
  1656  000A  00A8               	movwf	??_isr+4
  1657  000B  080A               	movf	10,w
  1658  000C  00A9               	movwf	??_isr+5
  1659  000D  120A  118A  2845   	ljmp	_isr
  1660                           
  1661                           	psect	text3
  1662  0357                     __ptext3:	
  1663 ;; *************** function _read *****************
  1664 ;; Defined at:
  1665 ;;		line 82 in file "proyectovacasfisico.c"
  1666 ;; Parameters:    Size  Location     Type
  1667 ;;  address         1    wreg     unsigned char 
  1668 ;; Auto vars:     Size  Location     Type
  1669 ;;  address         1    1[COMMON] unsigned char 
  1670 ;;  data            1    2[COMMON] unsigned char 
  1671 ;; Return value:  Size  Location     Type
  1672 ;;                  1    wreg      unsigned char 
  1673 ;; Registers used:
  1674 ;;		wreg
  1675 ;; Tracked objects:
  1676 ;;		On entry : 0/0
  1677 ;;		On exit  : 0/0
  1678 ;;		Unchanged: 0/0
  1679 ;; Data sizes:     COMMON   BANK0   BANK1   BANK3   BANK2
  1680 ;;      Params:         0       0       0       0       0
  1681 ;;      Locals:         2       0       0       0       0
  1682 ;;      Temps:          1       0       0       0       0
  1683 ;;      Totals:         3       0       0       0       0
  1684 ;;Total ram usage:        3 bytes
  1685 ;; Hardware stack levels used:    1
  1686 ;; This function calls:
  1687 ;;		Nothing
  1688 ;; This function is called by:
  1689 ;;		_isr
  1690 ;; This function uses a non-reentrant model
  1691 ;;
  1692                           
  1693                           
  1694                           ;psect for function _read
  1695  0357                     _read:
  1696                           
  1697                           ;incstack = 0
  1698                           ; Regs used in _read: [wreg]
  1699                           ;read@address stored from wreg
  1700  0357  00F1               	movwf	read@address
  1701  0358                     i1l1248:
  1702                           
  1703                           ;proyectovacasfisico.c: 83:     EEADR = address;
  1704  0358  0871               	movf	read@address,w
  1705  0359  1283               	bcf	3,5	;RP0=0, select bank2
  1706  035A  1703               	bsf	3,6	;RP1=1, select bank2
  1707  035B  008D               	movwf	13	;volatile
  1708  035C                     i1l1250:
  1709                           
  1710                           ;proyectovacasfisico.c: 84:     EECON1bits.EEPGD = 0;
  1711  035C  1683               	bsf	3,5	;RP0=1, select bank3
  1712  035D  1703               	bsf	3,6	;RP1=1, select bank3
  1713  035E  138C               	bcf	12,7	;volsfr
  1714  035F                     i1l1252:
  1715                           
  1716                           ;proyectovacasfisico.c: 85:     EECON1bits.RD = 1;
  1717  035F  140C               	bsf	12,0	;volsfr
  1718                           
  1719                           ;proyectovacasfisico.c: 86:     unsigned char data = EEDAT;
  1720  0360  1283               	bcf	3,5	;RP0=0, select bank2
  1721  0361  1703               	bsf	3,6	;RP1=1, select bank2
  1722  0362  080C               	movf	12,w	;volatile
  1723  0363  00F0               	movwf	??_read
  1724  0364  0870               	movf	??_read,w
  1725  0365  00F2               	movwf	read@data
  1726                           
  1727                           ;proyectovacasfisico.c: 88:     return data;
  1728  0366  0872               	movf	read@data,w
  1729  0367                     i1l144:
  1730  0367  0008               	return
  1731  0368                     __end_of_read:
  1732                           
  1733                           	psect	text4
  1734  0336                     __ptext4:	
  1735 ;; *************** function _mapear *****************
  1736 ;; Defined at:
  1737 ;;		line 58 in file "proyectovacasfisico.c"
  1738 ;; Parameters:    Size  Location     Type
  1739 ;;  adresval        1    wreg     unsigned char 
  1740 ;; Auto vars:     Size  Location     Type
  1741 ;;  adresval        1   13[COMMON] unsigned char 
  1742 ;; Return value:  Size  Location     Type
  1743 ;;                  1    wreg      unsigned char 
  1744 ;; Registers used:
  1745 ;;		wreg, status,2, status,0, pclath, cstack
  1746 ;; Tracked objects:
  1747 ;;		On entry : 0/0
  1748 ;;		On exit  : 0/0
  1749 ;;		Unchanged: 0/0
  1750 ;; Data sizes:     COMMON   BANK0   BANK1   BANK3   BANK2
  1751 ;;      Params:         0       0       0       0       0
  1752 ;;      Locals:         1       0       0       0       0
  1753 ;;      Temps:          2       0       0       0       0
  1754 ;;      Totals:         3       0       0       0       0
  1755 ;;Total ram usage:        3 bytes
  1756 ;; Hardware stack levels used:    1
  1757 ;; Hardware stack levels required when called:    1
  1758 ;; This function calls:
  1759 ;;		___awdiv
  1760 ;;		___wmul
  1761 ;; This function is called by:
  1762 ;;		_isr
  1763 ;; This function uses a non-reentrant model
  1764 ;;
  1765                           
  1766                           
  1767                           ;psect for function _mapear
  1768  0336                     _mapear:
  1769                           
  1770                           ;incstack = 0
  1771                           ; Regs used in _mapear: [wreg+status,2+status,0+pclath+cstack]
  1772                           ;mapear@adresval stored from wreg
  1773  0336  00FD               	movwf	mapear@adresval
  1774  0337                     i1l1234:
  1775                           
  1776                           ;proyectovacasfisico.c: 59:     return (adresval-0)*(254-80)/(255-0)+80;}
  1777  0337  30FF               	movlw	255
  1778  0338  00F6               	movwf	___awdiv@divisor
  1779  0339  3000               	movlw	0
  1780  033A  00F7               	movwf	___awdiv@divisor+1
  1781  033B  087D               	movf	mapear@adresval,w
  1782  033C  00FB               	movwf	??_mapear
  1783  033D  01FC               	clrf	??_mapear+1
  1784  033E  087B               	movf	??_mapear,w
  1785  033F  00F0               	movwf	___wmul@multiplier
  1786  0340  087C               	movf	??_mapear+1,w
  1787  0341  00F1               	movwf	___wmul@multiplier+1
  1788  0342  30AE               	movlw	174
  1789  0343  00F2               	movwf	___wmul@multiplicand
  1790  0344  3000               	movlw	0
  1791  0345  00F3               	movwf	___wmul@multiplicand+1
  1792  0346  120A  118A  22EE  120A  118A  	fcall	___wmul
  1793  034B  0871               	movf	?___wmul+1,w
  1794  034C  00F9               	movwf	___awdiv@dividend+1
  1795  034D  0870               	movf	?___wmul,w
  1796  034E  00F8               	movwf	___awdiv@dividend
  1797  034F  120A  118A  2285  120A  118A  	fcall	___awdiv
  1798  0354  0876               	movf	?___awdiv,w
  1799  0355  3E50               	addlw	80
  1800  0356                     i1l135:
  1801  0356  0008               	return
  1802  0357                     __end_of_mapear:
  1803                           
  1804                           	psect	text5
  1805  02EE                     __ptext5:	
  1806 ;; *************** function ___wmul *****************
  1807 ;; Defined at:
  1808 ;;		line 15 in file "C:\Program Files\Microchip\xc8\v2.31\pic\sources\c90\common\Umul16.c"
  1809 ;; Parameters:    Size  Location     Type
  1810 ;;  multiplier      2    0[COMMON] unsigned int 
  1811 ;;  multiplicand    2    2[COMMON] unsigned int 
  1812 ;; Auto vars:     Size  Location     Type
  1813 ;;  product         2    4[COMMON] unsigned int 
  1814 ;; Return value:  Size  Location     Type
  1815 ;;                  2    0[COMMON] unsigned int 
  1816 ;; Registers used:
  1817 ;;		wreg, status,2, status,0
  1818 ;; Tracked objects:
  1819 ;;		On entry : 0/0
  1820 ;;		On exit  : 0/0
  1821 ;;		Unchanged: 0/0
  1822 ;; Data sizes:     COMMON   BANK0   BANK1   BANK3   BANK2
  1823 ;;      Params:         4       0       0       0       0
  1824 ;;      Locals:         2       0       0       0       0
  1825 ;;      Temps:          0       0       0       0       0
  1826 ;;      Totals:         6       0       0       0       0
  1827 ;;Total ram usage:        6 bytes
  1828 ;; Hardware stack levels used:    1
  1829 ;; This function calls:
  1830 ;;		Nothing
  1831 ;; This function is called by:
  1832 ;;		_mapear
  1833 ;; This function uses a non-reentrant model
  1834 ;;
  1835                           
  1836                           
  1837                           ;psect for function ___wmul
  1838  02EE                     ___wmul:
  1839  02EE                     i1l1176:	
  1840                           ;incstack = 0
  1841                           ; Regs used in ___wmul: [wreg+status,2+status,0]
  1842                           
  1843  02EE  01F4               	clrf	___wmul@product
  1844  02EF  01F5               	clrf	___wmul@product+1
  1845  02F0                     i1l1178:
  1846  02F0  1C70               	btfss	___wmul@multiplier,0
  1847  02F1  2AF3               	goto	u32_21
  1848  02F2  2AF4               	goto	u32_20
  1849  02F3                     u32_21:
  1850  02F3  2AFA               	goto	i1l294
  1851  02F4                     u32_20:
  1852  02F4                     i1l1180:
  1853  02F4  0872               	movf	___wmul@multiplicand,w
  1854  02F5  07F4               	addwf	___wmul@product,f
  1855  02F6  1803               	skipnc
  1856  02F7  0AF5               	incf	___wmul@product+1,f
  1857  02F8  0873               	movf	___wmul@multiplicand+1,w
  1858  02F9  07F5               	addwf	___wmul@product+1,f
  1859  02FA                     i1l294:
  1860  02FA  3001               	movlw	1
  1861  02FB                     u33_25:
  1862  02FB  1003               	clrc
  1863  02FC  0DF2               	rlf	___wmul@multiplicand,f
  1864  02FD  0DF3               	rlf	___wmul@multiplicand+1,f
  1865  02FE  3EFF               	addlw	-1
  1866  02FF  1D03               	skipz
  1867  0300  2AFB               	goto	u33_25
  1868  0301                     i1l1182:
  1869  0301  3001               	movlw	1
  1870  0302                     u34_25:
  1871  0302  1003               	clrc
  1872  0303  0CF1               	rrf	___wmul@multiplier+1,f
  1873  0304  0CF0               	rrf	___wmul@multiplier,f
  1874  0305  3EFF               	addlw	-1
  1875  0306  1D03               	skipz
  1876  0307  2B02               	goto	u34_25
  1877  0308                     i1l1184:
  1878  0308  0870               	movf	___wmul@multiplier,w
  1879  0309  0471               	iorwf	___wmul@multiplier+1,w
  1880  030A  1D03               	btfss	3,2
  1881  030B  2B0D               	goto	u35_21
  1882  030C  2B0E               	goto	u35_20
  1883  030D                     u35_21:
  1884  030D  2AF0               	goto	i1l1178
  1885  030E                     u35_20:
  1886  030E                     i1l1186:
  1887  030E  0875               	movf	___wmul@product+1,w
  1888  030F  00F1               	movwf	?___wmul+1
  1889  0310  0874               	movf	___wmul@product,w
  1890  0311  00F0               	movwf	?___wmul
  1891  0312                     i1l296:
  1892  0312  0008               	return
  1893  0313                     __end_of___wmul:
  1894                           
  1895                           	psect	text6
  1896  0285                     __ptext6:	
  1897 ;; *************** function ___awdiv *****************
  1898 ;; Defined at:
  1899 ;;		line 5 in file "C:\Program Files\Microchip\xc8\v2.31\pic\sources\c90\common\awdiv.c"
  1900 ;; Parameters:    Size  Location     Type
  1901 ;;  divisor         2    6[COMMON] int 
  1902 ;;  dividend        2    8[COMMON] int 
  1903 ;; Auto vars:     Size  Location     Type
  1904 ;;  quotient        2    2[BANK0 ] int 
  1905 ;;  sign            1    1[BANK0 ] unsigned char 
  1906 ;;  counter         1    0[BANK0 ] unsigned char 
  1907 ;; Return value:  Size  Location     Type
  1908 ;;                  2    6[COMMON] int 
  1909 ;; Registers used:
  1910 ;;		wreg, status,2, status,0
  1911 ;; Tracked objects:
  1912 ;;		On entry : 0/0
  1913 ;;		On exit  : 0/0
  1914 ;;		Unchanged: 0/0
  1915 ;; Data sizes:     COMMON   BANK0   BANK1   BANK3   BANK2
  1916 ;;      Params:         4       0       0       0       0
  1917 ;;      Locals:         0       4       0       0       0
  1918 ;;      Temps:          1       0       0       0       0
  1919 ;;      Totals:         5       4       0       0       0
  1920 ;;Total ram usage:        9 bytes
  1921 ;; Hardware stack levels used:    1
  1922 ;; This function calls:
  1923 ;;		Nothing
  1924 ;; This function is called by:
  1925 ;;		_mapear
  1926 ;; This function uses a non-reentrant model
  1927 ;;
  1928                           
  1929                           
  1930                           ;psect for function ___awdiv
  1931  0285                     ___awdiv:
  1932  0285                     i1l1190:	
  1933                           ;incstack = 0
  1934                           ; Regs used in ___awdiv: [wreg+status,2+status,0]
  1935                           
  1936  0285  1283               	bcf	3,5	;RP0=0, select bank0
  1937  0286  1303               	bcf	3,6	;RP1=0, select bank0
  1938  0287  01A1               	clrf	___awdiv@sign
  1939  0288                     i1l1192:
  1940  0288  1FF7               	btfss	___awdiv@divisor+1,7
  1941  0289  2A8B               	goto	u36_21
  1942  028A  2A8C               	goto	u36_20
  1943  028B                     u36_21:
  1944  028B  2A93               	goto	i1l1198
  1945  028C                     u36_20:
  1946  028C                     i1l1194:
  1947  028C  09F6               	comf	___awdiv@divisor,f
  1948  028D  09F7               	comf	___awdiv@divisor+1,f
  1949  028E  0AF6               	incf	___awdiv@divisor,f
  1950  028F  1903               	skipnz
  1951  0290  0AF7               	incf	___awdiv@divisor+1,f
  1952  0291                     i1l1196:
  1953  0291  01A1               	clrf	___awdiv@sign
  1954  0292  0AA1               	incf	___awdiv@sign,f
  1955  0293                     i1l1198:
  1956  0293  1FF9               	btfss	___awdiv@dividend+1,7
  1957  0294  2A96               	goto	u37_21
  1958  0295  2A97               	goto	u37_20
  1959  0296                     u37_21:
  1960  0296  2AA0               	goto	i1l1204
  1961  0297                     u37_20:
  1962  0297                     i1l1200:
  1963  0297  09F8               	comf	___awdiv@dividend,f
  1964  0298  09F9               	comf	___awdiv@dividend+1,f
  1965  0299  0AF8               	incf	___awdiv@dividend,f
  1966  029A  1903               	skipnz
  1967  029B  0AF9               	incf	___awdiv@dividend+1,f
  1968  029C                     i1l1202:
  1969  029C  3001               	movlw	1
  1970  029D  00FA               	movwf	??___awdiv
  1971  029E  087A               	movf	??___awdiv,w
  1972  029F  06A1               	xorwf	___awdiv@sign,f
  1973  02A0                     i1l1204:
  1974  02A0  01A2               	clrf	___awdiv@quotient
  1975  02A1  01A3               	clrf	___awdiv@quotient+1
  1976  02A2                     i1l1206:
  1977  02A2  0876               	movf	___awdiv@divisor,w
  1978  02A3  0477               	iorwf	___awdiv@divisor+1,w
  1979  02A4  1903               	btfsc	3,2
  1980  02A5  2AA7               	goto	u38_21
  1981  02A6  2AA8               	goto	u38_20
  1982  02A7                     u38_21:
  1983  02A7  2ADF               	goto	i1l1226
  1984  02A8                     u38_20:
  1985  02A8                     i1l1208:
  1986  02A8  01A0               	clrf	___awdiv@counter
  1987  02A9  0AA0               	incf	___awdiv@counter,f
  1988  02AA  2AB6               	goto	i1l1214
  1989  02AB                     i1l1210:
  1990  02AB  3001               	movlw	1
  1991  02AC                     u39_25:
  1992  02AC  1003               	clrc
  1993  02AD  0DF6               	rlf	___awdiv@divisor,f
  1994  02AE  0DF7               	rlf	___awdiv@divisor+1,f
  1995  02AF  3EFF               	addlw	-1
  1996  02B0  1D03               	skipz
  1997  02B1  2AAC               	goto	u39_25
  1998  02B2                     i1l1212:
  1999  02B2  3001               	movlw	1
  2000  02B3  00FA               	movwf	??___awdiv
  2001  02B4  087A               	movf	??___awdiv,w
  2002  02B5  07A0               	addwf	___awdiv@counter,f
  2003  02B6                     i1l1214:
  2004  02B6  1FF7               	btfss	___awdiv@divisor+1,7
  2005  02B7  2AB9               	goto	u40_21
  2006  02B8  2ABA               	goto	u40_20
  2007  02B9                     u40_21:
  2008  02B9  2AAB               	goto	i1l1210
  2009  02BA                     u40_20:
  2010  02BA                     i1l1216:
  2011  02BA  3001               	movlw	1
  2012  02BB                     u41_25:
  2013  02BB  1003               	clrc
  2014  02BC  0DA2               	rlf	___awdiv@quotient,f
  2015  02BD  0DA3               	rlf	___awdiv@quotient+1,f
  2016  02BE  3EFF               	addlw	-1
  2017  02BF  1D03               	skipz
  2018  02C0  2ABB               	goto	u41_25
  2019  02C1  0877               	movf	___awdiv@divisor+1,w
  2020  02C2  0279               	subwf	___awdiv@dividend+1,w
  2021  02C3  1D03               	skipz
  2022  02C4  2AC7               	goto	u42_25
  2023  02C5  0876               	movf	___awdiv@divisor,w
  2024  02C6  0278               	subwf	___awdiv@dividend,w
  2025  02C7                     u42_25:
  2026  02C7  1C03               	skipc
  2027  02C8  2ACA               	goto	u42_21
  2028  02C9  2ACB               	goto	u42_20
  2029  02CA                     u42_21:
  2030  02CA  2AD2               	goto	i1l1222
  2031  02CB                     u42_20:
  2032  02CB                     i1l1218:
  2033  02CB  0876               	movf	___awdiv@divisor,w
  2034  02CC  02F8               	subwf	___awdiv@dividend,f
  2035  02CD  0877               	movf	___awdiv@divisor+1,w
  2036  02CE  1C03               	skipc
  2037  02CF  03F9               	decf	___awdiv@dividend+1,f
  2038  02D0  02F9               	subwf	___awdiv@dividend+1,f
  2039  02D1                     i1l1220:
  2040  02D1  1422               	bsf	___awdiv@quotient,0
  2041  02D2                     i1l1222:
  2042  02D2  3001               	movlw	1
  2043  02D3                     u43_25:
  2044  02D3  1003               	clrc
  2045  02D4  0CF7               	rrf	___awdiv@divisor+1,f
  2046  02D5  0CF6               	rrf	___awdiv@divisor,f
  2047  02D6  3EFF               	addlw	-1
  2048  02D7  1D03               	skipz
  2049  02D8  2AD3               	goto	u43_25
  2050  02D9                     i1l1224:
  2051  02D9  3001               	movlw	1
  2052  02DA  02A0               	subwf	___awdiv@counter,f
  2053  02DB  1D03               	btfss	3,2
  2054  02DC  2ADE               	goto	u44_21
  2055  02DD  2ADF               	goto	u44_20
  2056  02DE                     u44_21:
  2057  02DE  2ABA               	goto	i1l1216
  2058  02DF                     u44_20:
  2059  02DF                     i1l1226:
  2060  02DF  0821               	movf	___awdiv@sign,w
  2061  02E0  1903               	btfsc	3,2
  2062  02E1  2AE3               	goto	u45_21
  2063  02E2  2AE4               	goto	u45_20
  2064  02E3                     u45_21:
  2065  02E3  2AE9               	goto	i1l1230
  2066  02E4                     u45_20:
  2067  02E4                     i1l1228:
  2068  02E4  09A2               	comf	___awdiv@quotient,f
  2069  02E5  09A3               	comf	___awdiv@quotient+1,f
  2070  02E6  0AA2               	incf	___awdiv@quotient,f
  2071  02E7  1903               	skipnz
  2072  02E8  0AA3               	incf	___awdiv@quotient+1,f
  2073  02E9                     i1l1230:
  2074  02E9  0823               	movf	___awdiv@quotient+1,w
  2075  02EA  00F7               	movwf	?___awdiv+1
  2076  02EB  0822               	movf	___awdiv@quotient,w
  2077  02EC  00F6               	movwf	?___awdiv
  2078  02ED                     i1l447:
  2079  02ED  0008               	return
  2080  02EE                     __end_of___awdiv:
  2081  007E                     btemp	set	126	;btemp
  2082  007E                     wtemp0	set	126
  2083                           
  2084                           	psect	config
  2085                           
  2086                           ;Config register CONFIG1 @ 0x2007
  2087                           ;	Oscillator Selection bits
  2088                           ;	FOSC = INTRC_NOCLKOUT, INTOSCIO oscillator: I/O function on RA6/OSC2/CLKOUT pin, I/O f
      +                          unction on RA7/OSC1/CLKIN
  2089                           ;	Watchdog Timer Enable bit
  2090                           ;	WDTE = OFF, WDT disabled and can be enabled by SWDTEN bit of the WDTCON register
  2091                           ;	Power-up Timer Enable bit
  2092                           ;	PWRTE = OFF, PWRT disabled
  2093                           ;	RE3/MCLR pin function select bit
  2094                           ;	MCLRE = OFF, RE3/MCLR pin function is digital input, MCLR internally tied to VDD
  2095                           ;	Code Protection bit
  2096                           ;	CP = OFF, Program memory code protection is disabled
  2097                           ;	Data Code Protection bit
  2098                           ;	CPD = OFF, Data memory code protection is disabled
  2099                           ;	Brown Out Reset Selection bits
  2100                           ;	BOREN = OFF, BOR disabled
  2101                           ;	Internal External Switchover bit
  2102                           ;	IESO = OFF, Internal/External Switchover mode is disabled
  2103                           ;	Fail-Safe Clock Monitor Enabled bit
  2104                           ;	FCMEN = OFF, Fail-Safe Clock Monitor is disabled
  2105                           ;	Low Voltage Programming Enable bit
  2106                           ;	LVP = OFF, RB3 pin has digital I/O, HV on MCLR must be used for programming
  2107                           ;	In-Circuit Debugger Mode bit
  2108                           ;	DEBUG = 0x1, unprogrammed default
  2109  2007                     	org	8199
  2110  2007  20D4               	dw	8404
  2111                           
  2112                           ;Config register CONFIG2 @ 0x2008
  2113                           ;	Brown-out Reset Selection bit
  2114                           ;	BOR4V = BOR40V, Brown-out Reset set to 4.0V
  2115                           ;	Flash Program Memory Self Write Enable bits
  2116                           ;	WRT = OFF, Write protection off
  2117  2008                     	org	8200
  2118  2008  3FFF               	dw	16383

Data Sizes:
    Strings     0
    Constant    0
    Data        6
    BSS         10
    Persistent  0
    Stack       0

Auto Spaces:
    Space          Size  Autos    Used
    COMMON           14     14      14
    BANK0            80     13      29
    BANK1            80      0       0
    BANK3            96      0       0
    BANK2            96      0       0

Pointer List with Targets:

    None.

Critical Paths under _main in COMMON

    None.

Critical Paths under _isr in COMMON

    _isr->_mapear
    _mapear->___awdiv
    ___awdiv->___wmul

Critical Paths under _main in BANK0

    _main->_write

Critical Paths under _isr in BANK0

    _mapear->___awdiv

Critical Paths under _main in BANK1

    None.

Critical Paths under _isr in BANK1

    None.

Critical Paths under _main in BANK3

    None.

Critical Paths under _isr in BANK3

    None.

Critical Paths under _main in BANK2

    None.

Critical Paths under _isr in BANK2

    None.

Call Graph Tables:

 ---------------------------------------------------------------------------------
 (Depth) Function   	        Calls       Base Space   Used Autos Params    Refs
 ---------------------------------------------------------------------------------
 (0) _main                                                 1     1      0     500
                                             12 BANK0      1     1      0
                              _write
 ---------------------------------------------------------------------------------
 (1) _write                                                2     1      1     500
                                             10 BANK0      2     1      1
 ---------------------------------------------------------------------------------
 Estimated maximum stack depth 1
 ---------------------------------------------------------------------------------
 (Depth) Function   	        Calls       Base Space   Used Autos Params    Refs
 ---------------------------------------------------------------------------------
 (2) _isr                                                  6     6      0     763
                                              4 BANK0      6     6      0
                             _mapear
                               _read
 ---------------------------------------------------------------------------------
 (3) _read                                                 3     3      0      45
                                              0 COMMON     3     3      0
 ---------------------------------------------------------------------------------
 (3) _mapear                                               3     3      0     718
                                             11 COMMON     3     3      0
                            ___awdiv
                             ___wmul
 ---------------------------------------------------------------------------------
 (4) ___wmul                                               6     2      4     244
                                              0 COMMON     6     2      4
 ---------------------------------------------------------------------------------
 (4) ___awdiv                                              9     5      4     452
                                              6 COMMON     5     1      4
                                              0 BANK0      4     4      0
                             ___wmul (ARG)
 ---------------------------------------------------------------------------------
 Estimated maximum stack depth 4
 ---------------------------------------------------------------------------------

 Call Graph Graphs:

 _main (ROOT)
   _write

 _isr (ROOT)
   _mapear
     ___awdiv
       ___wmul (ARG)
     ___wmul
   _read

 Address spaces:
Name               Size   Autos  Total    Cost      Usage
BANK3               60      0       0       9        0.0%
BITBANK3            60      0       0       8        0.0%
SFR3                 0      0       0       4        0.0%
BITSFR3              0      0       0       4        0.0%
BANK2               60      0       0      11        0.0%
BITBANK2            60      0       0      10        0.0%
SFR2                 0      0       0       5        0.0%
BITSFR2              0      0       0       5        0.0%
BANK1               50      0       0       7        0.0%
BITBANK1            50      0       0       6        0.0%
SFR1                 0      0       0       2        0.0%
BITSFR1              0      0       0       2        0.0%
BANK0               50      D      1D       5       36.2%
BITBANK0            50      0       0       4        0.0%
SFR0                 0      0       0       1        0.0%
BITSFR0              0      0       0       1        0.0%
COMMON               E      E       E       1      100.0%
BITCOMMON            E      0       0       0        0.0%
CODE                 0      0       0       0        0.0%
DATA                 0      0      2B      12        0.0%
ABS                  0      0      2B       3        0.0%
NULL                 0      0       0       0        0.0%
STACK                0      0       0       2        0.0%
EEDATA             100      0       0       0        0.0%


Microchip Technology PIC Macro Assembler V2.31 build 20201012212115 
Symbol Table                                                                                   Wed Jun 30 20:11:20 2021

           ___awdiv@sign 0021      ___wmul@multiplicand 0072                      l201 020A  
                    l203 020E                      l140 0330                      l141 0335  
                    l138 032A                      _RD0 0040                      _RD1 0041  
                    _RD2 0042                      _RD3 0043                      _PR2 0092  
                    u460 0330                      u461 032F                      u570 020E  
                    u571 020D                      u580 0238                      u581 0237  
                    u597 01DC                      _isr 0045                      fsr0 0004  
                   l1240 0320                     l1400 01C7                     l1242 0323  
                   l1410 01D4                     l1402 01C8                     l1244 0324  
                   l1420 01EC                     l1412 01D5                     l1404 01CF  
                   l1246 0329                     l1238 0316                     l1430 01FB  
                   l1422 01EE                     l1414 01D8                     l1406 01D0  
                   l1440 0207                     l1432 01FC                     l1424 01F0  
                   l1416 01DF                     l1408 01D3                     l1360 01A7  
                   l1450 0220                     l1442 0209                     l1434 01FF  
                   l1426 01F3                     l1418 01E2                     l1370 01AE  
                   l1362 01AA                     l1460 022B                     l1452 0221  
                   l1444 0218                     l1436 0202                     l1428 01F9  
                   l1380 01B7                     l1372 01AF                     l1364 01AB  
                   l1356 01A2                     l1470 0230                     l1462 022C  
                   l1454 0222                     l1446 021C                     l1438 0206  
                   l1390 01BF                     l1382 01B8                     l1374 01B0  
                   l1366 01AC                     l1358 01A6                     l1472 0233  
                   l1464 022D                     l1456 0225                     l1448 021D  
                   l1392 01C0                     l1384 01BA                     l1376 01B4  
                   l1368 01AD                     l1474 0238                     l1466 022E  
                   l1458 0228                     l1394 01C1                     l1386 01BD  
                   l1378 01B6                     l1476 027E                     l1468 022F  
                   l1396 01C4                     l1388 01BE                     l1398 01C6  
                   _ADIF 0066                     ?_isr 0070                     _T0IF 005A  
                   _RBIF 0058                     _TMR0 0001                     _main 01A2  
                   _read 0357                     btemp 007E                     start 0010  
                  ??_isr 0024                    ?_main 0070                    ?_read 0070  
        __end_of___awdiv 02EE                    _EEADR 010D                    _EEDAT 010C  
        ___awdiv@divisor 0076                    i1l135 0356                    i1l144 0367  
                  i1l170 0057                    i1l163 00AA                    i1l164 0050  
                  i1l165 00A9                    i1l166 00A8                    i1l192 0181  
                  i1l186 0153                    i1l195 0198                    i1l196 0199  
                  i1l189 016A                    i1l294 02FA                    i1l447 02ED  
                  i1l296 0312          ___awdiv@counter 0020                    u40_20 02BA  
                  u32_20 02F4                    u40_21 02B9                    u32_21 02F3  
                  u41_25 02BB                    u33_25 02FB                    u42_20 02CB  
                  u50_20 00AE                    u42_21 02CA                    u50_21 00AD  
                  _SPBRG 0099                    u42_25 02C7                    u34_25 0302  
                  u35_20 030E                    u51_20 00B3                    u35_21 030D  
                  u51_21 00B2                    _PORTA 0005                    _PORTB 0006  
                  _PORTC 0007                    _PORTD 0008                    u43_25 02D3  
                  _PORTE 0009                    u44_20 02DF                    u36_20 028C  
                  u52_20 0136                    u44_21 02DE                    u36_21 028B  
                  u52_21 0135                    u60_27 012B                    u45_20 02E4  
                  u37_20 0297                    u53_20 0153                    u45_21 02E3  
                  u37_21 0296                    u53_21 0152                    u61_27 0142  
                  u38_20 02A8                    u54_20 016A                    u38_21 02A7  
                  u54_21 0169                    u62_27 0159                    u55_20 0181  
                  u47_20 0049                    u55_21 0180                    u47_21 0048  
                  u39_25 02AC                    u63_27 0170                    u56_20 0198  
                  u48_20 004D                    u56_21 0197                    u48_21 004C  
                  u64_27 0187                    u49_20 0054                    u49_21 0053  
                  _TRISA 0085                    _TRISB 0086                    _TRISC 0087  
                  _TRISD 0088                    _TRISE 0089                    _TXREG 0019  
                  _write 0313                    pclath 000A                    status 0003  
                  wtemp0 007E          __initialization 0013             __end_of_main 0285  
           __end_of_read 0368                   ??_main 002C                   ??_read 0070  
            read@address 0071                   _ADRESH 001E                   _CCPR1L 0015  
                 _CCPR2L 001B                   _EECON2 018D         ___awdiv@dividend 0078  
                 _ANSELH 0189                   ?_write 002A                   i1l1200 0297  
                 i1l1210 02AB                   i1l1202 029C                   i1l1220 02D1  
                 i1l1212 02B2                   i1l1204 02A0                   i1l1300 0127  
                 i1l1230 02E9                   i1l1222 02D2                   i1l1214 02B6  
                 i1l1206 02A2                   i1l1310 0137                   i1l1302 012E  
                 i1l1224 02D9                   i1l1216 02BA                   i1l1208 02A8  
                 i1l1320 013D                   i1l1312 0139                   i1l1304 0131  
                 i1l1218 02CB                   i1l1226 02DF                   i1l1234 0337  
                 i1l1250 035C                   i1l1330 0162                   i1l1322 0147  
                 i1l1314 013A                   i1l1306 0132                   i1l1228 02E4  
                 i1l1180 02F4                   i1l1252 035F                   i1l1340 018C  
                 i1l1332 016C                   i1l1324 014B                   i1l1316 013B  
                 i1l1308 0136                   i1l1260 004D                   i1l1190 0285  
                 i1l1182 0301                   i1l1342 0190                   i1l1334 0175  
                 i1l1326 0155                   i1l1318 013C                   i1l1270 0098  
                 i1l1192 0288                   i1l1184 0308                   i1l1176 02EE  
                 i1l1248 0358                   i1l1336 0179                   i1l1328 015E  
                 i1l1280 00CA                   i1l1272 00AE                   i1l1264 0055  
                 i1l1256 0045                   i1l1194 028C                   i1l1186 030E  
                 i1l1178 02F0                   i1l1338 0183                   i1l1290 00F5  
                 i1l1282 00D5                   i1l1266 0059                   i1l1258 0049  
                 i1l1196 0291                   i1l1540 0113                   i1l1292 00FA  
                 i1l1284 00DA                   i1l1276 00B4                   i1l1198 0293  
                 i1l1294 0105                   i1l1286 00E5                   i1l1278 00BF  
                 i1l1288 00EA                   i1l1298 0108                   i1l1538 00A0  
                 _SPBRGH 009A                   ___wmul 02EE                ??___awdiv 007A  
                 _mapear 0336         ___awdiv@quotient 0022                   saved_w 007E  
__end_of__initialization 0041           __pcstackCOMMON 0070             __pidataBANK0 0368  
          __end_of_write 0336           _OPTION_REGbits 0081               _addpotccp1 003C  
             _addpotccp2 003B                  ??_write 002B               __pbssBANK0 002D  
             __pmaintext 01A2                  ?___wmul 0070               __pintentry 0004  
                ?_mapear 0070               _contservo0 0036               _contservo1 0035  
             _contservo2 0034               _contservo3 0033                  ___awdiv 0285  
        __size_of___wmul 0025                  _addpot0 003A                  _addpot1 0039  
                _addpot2 0038                  _addpot3 0037          __size_of_mapear 0021  
              _ANSELbits 0188                  __ptext1 0313                  __ptext2 0045  
                __ptext3 0357                  __ptext4 0336                  __ptext5 02EE  
                __ptext6 0285                _T2CONbits 0012             __size_of_isr 015D  
   end_of_initialization 0041             write@address 002A                _RCSTAbits 0018  
              _PORTBbits 0006                _TRISCbits 0087              _CCP1CONbits 0017  
            _CCP2CONbits 001D                _TXSTAbits 0098           __end_of___wmul 0313  
            _BAUDCTLbits 0187           __end_of_mapear 0357      start_initialization 0013  
            __end_of_isr 01A2                 ??___wmul 0074              __pdataBANK0 0037  
               ??_mapear 007B                ___latbits 0002            __pcstackBANK0 0020  
               ?___awdiv 0076           __size_of_write 0023        interrupt_function 0004  
         ___wmul@product 0074                 _IOCBbits 0096                 _PIE1bits 008C  
               _PIR1bits 000C                 _PIR2bits 000D                _valservo0 0032  
              _valservo1 0031                _valservo2 0030                _valservo3 002F  
             _ADCON0bits 001F               _ADCON1bits 009F        ___wmul@multiplier 0070  
               _WPUBbits 0095               _EECON1bits 018C         __size_of___awdiv 0069  
          __size_of_main 00E3            __size_of_read 0011                 _savedpos 002E  
               _writepos 002D               _INTCONbits 000B                 read@data 0072  
               intlevel1 0000               _OSCCONbits 008F                write@data 002B  
         mapear@adresval 007D  
