

Microchip MPLAB XC8 Assembler V2.31 build 20201012212115 
                                                                                               Tue May 04 01:03:05 2021

Microchip MPLAB XC8 C Compiler v2.31 (Free license) build 20201012212115 Og1 
     1                           	processor	16F887
     2                           	pagewidth 120
     3                           	opt	flic
     4                           	psect	cinit,global,class=CODE,merge=1,delta=2
     5                           	psect	bssCOMMON,global,class=COMMON,space=1,delta=1,noexec
     6                           	psect	cstackCOMMON,global,class=COMMON,space=1,delta=1,noexec
     7                           	psect	maintext,global,class=CODE,split=1,delta=2
     8                           	psect	text1,local,class=CODE,merge=1,delta=2
     9                           	psect	text2,local,class=CODE,merge=1,delta=2
    10                           	psect	text3,local,class=CODE,merge=1,delta=2
    11                           	psect	text4,local,class=CODE,merge=1,delta=2
    12                           	psect	intentry,global,class=CODE,delta=2
    13                           	psect	config,global,abs,ovrld,class=CONFIG,space=4,delta=2,noexec
    14                           	dabs	1,0x7E,2
    15  0000                     
    16                           ; Version 2.20
    17                           ; Generated 12/02/2020 GMT
    18                           ; 
    19                           ; Copyright © 2020, Microchip Technology Inc. and its subsidiaries ("Microchip")
    20                           ; All rights reserved.
    21                           ; 
    22                           ; This software is developed by Microchip Technology Inc. and its subsidiaries ("Microch
      +                          ip").
    23                           ; 
    24                           ; Redistribution and use in source and binary forms, with or without modification, are
    25                           ; permitted provided that the following conditions are met:
    26                           ; 
    27                           ;     1. Redistributions of source code must retain the above copyright notice, this lis
      +                          t of
    28                           ;        conditions and the following disclaimer.
    29                           ; 
    30                           ;     2. Redistributions in binary form must reproduce the above copyright notice, this 
      +                          list
    31                           ;        of conditions and the following disclaimer in the documentation and/or other
    32                           ;        materials provided with the distribution.
    33                           ; 
    34                           ;     3. Microchip's name may not be used to endorse or promote products derived from th
      +                          is
    35                           ;        software without specific prior written permission.
    36                           ; 
    37                           ; THIS SOFTWARE IS PROVIDED BY MICROCHIP "AS IS" AND ANY EXPRESS OR IMPLIED WARRANTIES,
    38                           ; INCLUDING, BUT NOT LIMITED TO, THE IMPLIED WARRANTIES OF MERCHANTABILITY AND FITNESS F
      +                          OR
    39                           ; PURPOSE ARE DISCLAIMED.  IN NO EVENT SHALL MICROCHIP BE LIABLE FOR ANY DIRECT, INDIREC
      +                          T,
    40                           ; INCIDENTAL, SPECIAL, EXEMPLARY, OR CONSEQUENTIAL DAMAGES (INCLUDING BUT NOT LIMITED TO
    41                           ; PROCUREMENT OF SUBSTITUTE GOODS OR SERVICES; LOSS OF USE, DATA OR PROFITS; OR BUSINESS
    42                           ; INTERRUPTION) HOWSOEVER CAUSED AND ON ANY THEORY OF LIABILITY, WHETHER IN CONTRACT, ST
      +                          RICT
    43                           ; LIABILITY, OR TORT (INCLUDING NEGLIGENCE OR OTHERWISE) ARISING IN ANY WAY OUT OF THE U
      +                          SE OF
    44                           ; THIS SOFTWARE, EVEN IF ADVISED OF THE POSSIBILITY OF SUCH DAMAGE.
    45                           ; 
    46                           ; 
    47                           ; Code-generator required, PIC16F887 Definitions
    48                           ; 
    49                           ; SFR Addresses
    50  0000                     	;# 
    51  0001                     	;# 
    52  0002                     	;# 
    53  0003                     	;# 
    54  0004                     	;# 
    55  0005                     	;# 
    56  0006                     	;# 
    57  0007                     	;# 
    58  0008                     	;# 
    59  0009                     	;# 
    60  000A                     	;# 
    61  000B                     	;# 
    62  000C                     	;# 
    63  000D                     	;# 
    64  000E                     	;# 
    65  000E                     	;# 
    66  000F                     	;# 
    67  0010                     	;# 
    68  0011                     	;# 
    69  0012                     	;# 
    70  0013                     	;# 
    71  0014                     	;# 
    72  0015                     	;# 
    73  0015                     	;# 
    74  0016                     	;# 
    75  0017                     	;# 
    76  0018                     	;# 
    77  0019                     	;# 
    78  001A                     	;# 
    79  001B                     	;# 
    80  001B                     	;# 
    81  001C                     	;# 
    82  001D                     	;# 
    83  001E                     	;# 
    84  001F                     	;# 
    85  0081                     	;# 
    86  0085                     	;# 
    87  0086                     	;# 
    88  0087                     	;# 
    89  0088                     	;# 
    90  0089                     	;# 
    91  008C                     	;# 
    92  008D                     	;# 
    93  008E                     	;# 
    94  008F                     	;# 
    95  0090                     	;# 
    96  0091                     	;# 
    97  0092                     	;# 
    98  0093                     	;# 
    99  0093                     	;# 
   100  0093                     	;# 
   101  0094                     	;# 
   102  0095                     	;# 
   103  0096                     	;# 
   104  0097                     	;# 
   105  0098                     	;# 
   106  0099                     	;# 
   107  009A                     	;# 
   108  009B                     	;# 
   109  009C                     	;# 
   110  009D                     	;# 
   111  009E                     	;# 
   112  009F                     	;# 
   113  0105                     	;# 
   114  0107                     	;# 
   115  0108                     	;# 
   116  0109                     	;# 
   117  010C                     	;# 
   118  010C                     	;# 
   119  010D                     	;# 
   120  010E                     	;# 
   121  010F                     	;# 
   122  0185                     	;# 
   123  0187                     	;# 
   124  0188                     	;# 
   125  0189                     	;# 
   126  018C                     	;# 
   127  018D                     	;# 
   128  0000                     	;# 
   129  0001                     	;# 
   130  0002                     	;# 
   131  0003                     	;# 
   132  0004                     	;# 
   133  0005                     	;# 
   134  0006                     	;# 
   135  0007                     	;# 
   136  0008                     	;# 
   137  0009                     	;# 
   138  000A                     	;# 
   139  000B                     	;# 
   140  000C                     	;# 
   141  000D                     	;# 
   142  000E                     	;# 
   143  000E                     	;# 
   144  000F                     	;# 
   145  0010                     	;# 
   146  0011                     	;# 
   147  0012                     	;# 
   148  0013                     	;# 
   149  0014                     	;# 
   150  0015                     	;# 
   151  0015                     	;# 
   152  0016                     	;# 
   153  0017                     	;# 
   154  0018                     	;# 
   155  0019                     	;# 
   156  001A                     	;# 
   157  001B                     	;# 
   158  001B                     	;# 
   159  001C                     	;# 
   160  001D                     	;# 
   161  001E                     	;# 
   162  001F                     	;# 
   163  0081                     	;# 
   164  0085                     	;# 
   165  0086                     	;# 
   166  0087                     	;# 
   167  0088                     	;# 
   168  0089                     	;# 
   169  008C                     	;# 
   170  008D                     	;# 
   171  008E                     	;# 
   172  008F                     	;# 
   173  0090                     	;# 
   174  0091                     	;# 
   175  0092                     	;# 
   176  0093                     	;# 
   177  0093                     	;# 
   178  0093                     	;# 
   179  0094                     	;# 
   180  0095                     	;# 
   181  0096                     	;# 
   182  0097                     	;# 
   183  0098                     	;# 
   184  0099                     	;# 
   185  009A                     	;# 
   186  009B                     	;# 
   187  009C                     	;# 
   188  009D                     	;# 
   189  009E                     	;# 
   190  009F                     	;# 
   191  0105                     	;# 
   192  0107                     	;# 
   193  0108                     	;# 
   194  0109                     	;# 
   195  010C                     	;# 
   196  010C                     	;# 
   197  010D                     	;# 
   198  010E                     	;# 
   199  010F                     	;# 
   200  0185                     	;# 
   201  0187                     	;# 
   202  0188                     	;# 
   203  0189                     	;# 
   204  018C                     	;# 
   205  018D                     	;# 
   206  000B                     _INTCONbits	set	11
   207  0018                     _RCSTAbits	set	24
   208  0006                     _PORTB	set	6
   209  0005                     _PORTA	set	5
   210  0019                     _TXREG	set	25
   211  000C                     _PIR1bits	set	12
   212  008C                     _PIE1bits	set	140
   213  009A                     _SPBRGH	set	154
   214  0099                     _SPBRG	set	153
   215  0098                     _TXSTAbits	set	152
   216  0086                     _TRISB	set	134
   217  0085                     _TRISA	set	133
   218  008F                     _OSCCONbits	set	143
   219  0187                     _BAUDCTLbits	set	391
   220  0188                     _ANSEL	set	392
   221  0189                     _ANSELH	set	393
   222                           
   223                           	psect	cinit
   224  000F                     start_initialization:	
   225                           ; #config settings
   226                           
   227  000F                     __initialization:
   228                           
   229                           ; Clear objects allocated to COMMON
   230  000F  01F4               	clrf	__pbssCOMMON& (0+127)
   231  0010                     end_of_initialization:	
   232                           ;End of C runtime variable initialization code
   233                           
   234  0010                     __end_of__initialization:
   235  0010  0183               	clrf	3
   236  0011  120A  118A  2C28   	ljmp	_main	;jump to C main() function
   237                           
   238                           	psect	bssCOMMON
   239  0074                     __pbssCOMMON:
   240  0074                     _datomenu:
   241  0074                     	ds	1
   242                           
   243                           	psect	cstackCOMMON
   244  0070                     __pcstackCOMMON:
   245  0070                     ?_caracteres:
   246  0070                     ?_nuevocaracter:	
   247                           ; 1 bytes @ 0x0
   248                           
   249  0070                     ?_menu:	
   250                           ; 1 bytes @ 0x0
   251                           
   252  0070                     ?_isr:	
   253                           ; 1 bytes @ 0x0
   254                           
   255  0070                     ??_isr:	
   256                           ; 1 bytes @ 0x0
   257                           
   258  0070                     ?_main:	
   259                           ; 1 bytes @ 0x0
   260                           
   261                           
   262                           ; 1 bytes @ 0x0
   263  0070                     	ds	2
   264  0072                     ??_caracteres:
   265  0072                     ??_nuevocaracter:	
   266                           ; 1 bytes @ 0x2
   267                           
   268  0072                     ??_menu:	
   269                           ; 1 bytes @ 0x2
   270                           
   271                           
   272                           ; 1 bytes @ 0x2
   273  0072                     	ds	1
   274  0073                     ??_main:
   275                           
   276                           ; 1 bytes @ 0x3
   277  0073                     	ds	1
   278                           
   279                           	psect	maintext
   280  0428                     __pmaintext:	
   281 ;;
   282 ;;Main: autosize = 0, tempsize = 1, incstack = 0, save=0
   283 ;;
   284 ;; *************** function _main *****************
   285 ;; Defined at:
   286 ;;		line 289 in file "lab10canvas.c"
   287 ;; Parameters:    Size  Location     Type
   288 ;;		None
   289 ;; Auto vars:     Size  Location     Type
   290 ;;		None
   291 ;; Return value:  Size  Location     Type
   292 ;;                  1    wreg      void 
   293 ;; Registers used:
   294 ;;		wreg, status,2, status,0, pclath, cstack
   295 ;; Tracked objects:
   296 ;;		On entry : B00/0
   297 ;;		On exit  : 0/0
   298 ;;		Unchanged: 0/0
   299 ;; Data sizes:     COMMON   BANK0   BANK1   BANK3   BANK2
   300 ;;      Params:         0       0       0       0       0
   301 ;;      Locals:         0       0       0       0       0
   302 ;;      Temps:          1       0       0       0       0
   303 ;;      Totals:         1       0       0       0       0
   304 ;;Total ram usage:        1 bytes
   305 ;; Hardware stack levels required when called:    2
   306 ;; This function calls:
   307 ;;		_caracteres
   308 ;;		_menu
   309 ;;		_nuevocaracter
   310 ;; This function is called by:
   311 ;;		Startup code after reset
   312 ;; This function uses a non-reentrant model
   313 ;;
   314                           
   315                           
   316                           ;psect for function _main
   317  0428                     _main:
   318  0428                     l782:	
   319                           ;incstack = 0
   320                           ; Regs used in _main: [wreg+status,2+status,0+pclath+cstack]
   321                           
   322                           
   323                           ;lab10canvas.c: 292:     caracteres();
   324  0428  1683               	bsf	3,5	;RP0=1, select bank1
   325  0429  1303               	bcf	3,6	;RP1=0, select bank1
   326  042A  080F               	movf	15,w	;volatile
   327  042B  398F               	andlw	-113
   328  042C  3840               	iorlw	64
   329  042D  008F               	movwf	15	;volatile
   330  042E                     l784:
   331                           
   332                           ;lab10canvas.c: 293:     while (1){
   333  042E  140F               	bsf	15,0	;volatile
   334  042F                     l786:
   335                           
   336                           ;lab10canvas.c: 295: 
   337  042F  1683               	bsf	3,5	;RP0=1, select bank3
   338  0430  1703               	bsf	3,6	;RP1=1, select bank3
   339  0431  0189               	clrf	9	;volatile
   340  0432                     l788:
   341                           
   342                           ;lab10canvas.c: 296:     }
   343  0432  0188               	clrf	8	;volatile
   344  0433                     l790:
   345                           
   346                           ;lab10canvas.c: 297: }
   347  0433  1683               	bsf	3,5	;RP0=1, select bank1
   348  0434  1303               	bcf	3,6	;RP1=0, select bank1
   349  0435  0185               	clrf	5	;volatile
   350  0436                     l792:
   351  0436  0186               	clrf	6	;volatile
   352  0437                     l794:
   353  0437  1283               	bcf	3,5	;RP0=0, select bank0
   354  0438  1303               	bcf	3,6	;RP1=0, select bank0
   355  0439  0185               	clrf	5	;volatile
   356  043A                     l796:
   357  043A  0186               	clrf	6	;volatile
   358  043B                     l798:
   359  043B  1683               	bsf	3,5	;RP0=1, select bank1
   360  043C  1303               	bcf	3,6	;RP1=0, select bank1
   361  043D  1218               	bcf	24,4	;volatile
   362  043E                     l800:
   363  043E  1518               	bsf	24,2	;volatile
   364  043F                     l802:
   365  043F  1683               	bsf	3,5	;RP0=1, select bank3
   366  0440  1703               	bsf	3,6	;RP1=1, select bank3
   367  0441  1587               	bsf	7,3	;volatile
   368  0442                     l804:
   369  0442  3019               	movlw	25
   370  0443  1683               	bsf	3,5	;RP0=1, select bank1
   371  0444  1303               	bcf	3,6	;RP1=0, select bank1
   372  0445  0099               	movwf	25	;volatile
   373  0446                     l806:
   374  0446  019A               	clrf	26	;volatile
   375  0447                     l808:
   376  0447  1283               	bcf	3,5	;RP0=0, select bank0
   377  0448  1303               	bcf	3,6	;RP1=0, select bank0
   378  0449  1798               	bsf	24,7	;volatile
   379  044A                     l810:
   380  044A  1318               	bcf	24,6	;volatile
   381  044B                     l812:
   382  044B  1618               	bsf	24,4	;volatile
   383  044C                     l814:
   384  044C  1683               	bsf	3,5	;RP0=1, select bank1
   385  044D  1303               	bcf	3,6	;RP1=0, select bank1
   386  044E  1698               	bsf	24,5	;volatile
   387  044F                     l816:
   388  044F  1283               	bcf	3,5	;RP0=0, select bank0
   389  0450  1303               	bcf	3,6	;RP1=0, select bank0
   390  0451  128C               	bcf	12,5	;volatile
   391  0452                     l818:
   392  0452  1683               	bsf	3,5	;RP0=1, select bank1
   393  0453  1303               	bcf	3,6	;RP1=0, select bank1
   394  0454  168C               	bsf	12,5	;volatile
   395  0455                     l820:
   396  0455  1283               	bcf	3,5	;RP0=0, select bank0
   397  0456  1303               	bcf	3,6	;RP1=0, select bank0
   398  0457  130C               	bcf	12,6	;volatile
   399  0458                     l822:
   400  0458  1683               	bsf	3,5	;RP0=1, select bank1
   401  0459  1303               	bcf	3,6	;RP1=0, select bank1
   402  045A  170C               	bsf	12,6	;volatile
   403  045B                     l824:
   404  045B  170B               	bsf	11,6	;volatile
   405  045C                     l826:
   406  045C  178B               	bsf	11,7	;volatile
   407  045D                     l828:
   408  045D  120A  118A  2014  120A  118A  	fcall	_menu
   409  0462                     l830:
   410  0462  30F9               	movlw	249
   411  0463  00F3               	movwf	??_main
   412  0464                     u47:
   413  0464  2C65               	nop2
   414  0465  0BF3               	decfsz	??_main,f
   415  0466  2C64               	goto	u47
   416  0467  2C68               	nop2
   417  0468  2C69               	nop2
   418  0469                     l832:
   419  0469  120A  118A  238E  120A  118A  	fcall	_nuevocaracter
   420  046E                     l834:
   421  046E  30F9               	movlw	249
   422  046F  00F3               	movwf	??_main
   423  0470                     u57:
   424  0470  2C71               	nop2
   425  0471  0BF3               	decfsz	??_main,f
   426  0472  2C70               	goto	u57
   427  0473  2C74               	nop2
   428  0474  2C75               	nop2
   429  0475                     l836:
   430  0475  120A  118A  228F  120A  118A  	fcall	_caracteres
   431  047A                     l59:
   432  047A                     l60:
   433  047A  2C7A               	goto	l59
   434  047B  120A  118A  280C   	ljmp	start
   435  047E                     __end_of_main:
   436                           
   437                           	psect	text1
   438  038E                     __ptext1:	
   439 ;; *************** function _nuevocaracter *****************
   440 ;; Defined at:
   441 ;;		line 93 in file "lab10canvas.c"
   442 ;; Parameters:    Size  Location     Type
   443 ;;		None
   444 ;; Auto vars:     Size  Location     Type
   445 ;;		None
   446 ;; Return value:  Size  Location     Type
   447 ;;                  1    wreg      void 
   448 ;; Registers used:
   449 ;;		wreg
   450 ;; Tracked objects:
   451 ;;		On entry : 0/0
   452 ;;		On exit  : 0/0
   453 ;;		Unchanged: 0/0
   454 ;; Data sizes:     COMMON   BANK0   BANK1   BANK3   BANK2
   455 ;;      Params:         0       0       0       0       0
   456 ;;      Locals:         0       0       0       0       0
   457 ;;      Temps:          1       0       0       0       0
   458 ;;      Totals:         1       0       0       0       0
   459 ;;Total ram usage:        1 bytes
   460 ;; Hardware stack levels used:    1
   461 ;; Hardware stack levels required when called:    1
   462 ;; This function calls:
   463 ;;		Nothing
   464 ;; This function is called by:
   465 ;;		_main
   466 ;; This function uses a non-reentrant model
   467 ;;
   468                           
   469                           
   470                           ;psect for function _nuevocaracter
   471  038E                     _nuevocaracter:
   472  038E                     l772:	
   473                           ;incstack = 0
   474                           ; Regs used in _nuevocaracter: [wreg]
   475                           
   476                           
   477                           ;lab10canvas.c: 94:      TXREG = 101;
   478  038E  1283               	bcf	3,5	;RP0=0, select bank0
   479  038F  1303               	bcf	3,6	;RP1=0, select bank0
   480  0390  1E0C               	btfss	12,4	;volatile
   481  0391  2B93               	goto	u21
   482  0392  2B94               	goto	u20
   483  0393                     u21:
   484  0393  2C27               	goto	l44
   485  0394                     u20:
   486  0394                     l774:
   487                           
   488                           ;lab10canvas.c: 95:      TXREG = 114;
   489  0394  3049               	movlw	73
   490  0395  0099               	movwf	25	;volatile
   491                           
   492                           ;lab10canvas.c: 96:      _delay((unsigned long)((5)*(1000000/4000.0)));
   493  0396  306E               	movlw	110
   494  0397  0099               	movwf	25	;volatile
   495                           
   496                           ;lab10canvas.c: 97:      TXREG = 58;
   497  0398  30F9               	movlw	249
   498  0399  00F2               	movwf	??_nuevocaracter
   499  039A                     u67:
   500  039A  2B9B               	nop2
   501  039B  0BF2               	decfsz	??_nuevocaracter,f
   502  039C  2B9A               	goto	u67
   503  039D  2B9E               	nop2
   504  039E  2B9F               	nop2
   505                           
   506                           ;lab10canvas.c: 98:      TXREG = 13;}
   507  039F  3067               	movlw	103
   508  03A0  1283               	bcf	3,5	;RP0=0, select bank0
   509  03A1  1303               	bcf	3,6	;RP1=0, select bank0
   510  03A2  0099               	movwf	25	;volatile
   511                           
   512                           ;lab10canvas.c: 99: }
   513  03A3  3072               	movlw	114
   514  03A4  0099               	movwf	25	;volatile
   515                           
   516                           ;lab10canvas.c: 100: 
   517  03A5  30F9               	movlw	249
   518  03A6  00F2               	movwf	??_nuevocaracter
   519  03A7                     u77:
   520  03A7  2BA8               	nop2
   521  03A8  0BF2               	decfsz	??_nuevocaracter,f
   522  03A9  2BA7               	goto	u77
   523  03AA  2BAB               	nop2
   524  03AB  2BAC               	nop2
   525                           
   526                           ;lab10canvas.c: 101: void menu(void){
   527  03AC  3065               	movlw	101
   528  03AD  1283               	bcf	3,5	;RP0=0, select bank0
   529  03AE  1303               	bcf	3,6	;RP1=0, select bank0
   530  03AF  0099               	movwf	25	;volatile
   531                           
   532                           ;lab10canvas.c: 102:     if (PIR1bits.TXIF)
   533  03B0  3073               	movlw	115
   534  03B1  0099               	movwf	25	;volatile
   535                           
   536                           ;lab10canvas.c: 103:     {TXREG = 81;
   537  03B2  30F9               	movlw	249
   538  03B3  00F2               	movwf	??_nuevocaracter
   539  03B4                     u87:
   540  03B4  2BB5               	nop2
   541  03B5  0BF2               	decfsz	??_nuevocaracter,f
   542  03B6  2BB4               	goto	u87
   543  03B7  2BB8               	nop2
   544  03B8  2BB9               	nop2
   545                           
   546                           ;lab10canvas.c: 104:      TXREG = 117;
   547  03B9  3065               	movlw	101
   548  03BA  1283               	bcf	3,5	;RP0=0, select bank0
   549  03BB  1303               	bcf	3,6	;RP1=0, select bank0
   550  03BC  0099               	movwf	25	;volatile
   551                           
   552                           ;lab10canvas.c: 105:      _delay((unsigned long)((5)*(1000000/4000.0)));
   553  03BD  3020               	movlw	32
   554  03BE  0099               	movwf	25	;volatile
   555                           
   556                           ;lab10canvas.c: 106:      TXREG = 101;
   557  03BF  30F9               	movlw	249
   558  03C0  00F2               	movwf	??_nuevocaracter
   559  03C1                     u97:
   560  03C1  2BC2               	nop2
   561  03C2  0BF2               	decfsz	??_nuevocaracter,f
   562  03C3  2BC1               	goto	u97
   563  03C4  2BC5               	nop2
   564  03C5  2BC6               	nop2
   565                           
   566                           ;lab10canvas.c: 107:      TXREG = 32;
   567  03C6  306E               	movlw	110
   568  03C7  1283               	bcf	3,5	;RP0=0, select bank0
   569  03C8  1303               	bcf	3,6	;RP1=0, select bank0
   570  03C9  0099               	movwf	25	;volatile
   571                           
   572                           ;lab10canvas.c: 108:      _delay((unsigned long)((5)*(1000000/4000.0)));
   573  03CA  3075               	movlw	117
   574  03CB  0099               	movwf	25	;volatile
   575                           
   576                           ;lab10canvas.c: 109:      TXREG = 97;
   577  03CC  30F9               	movlw	249
   578  03CD  00F2               	movwf	??_nuevocaracter
   579  03CE                     u107:
   580  03CE  2BCF               	nop2
   581  03CF  0BF2               	decfsz	??_nuevocaracter,f
   582  03D0  2BCE               	goto	u107
   583  03D1  2BD2               	nop2
   584  03D2  2BD3               	nop2
   585                           
   586                           ;lab10canvas.c: 110:      TXREG = 99;
   587  03D3  3065               	movlw	101
   588  03D4  1283               	bcf	3,5	;RP0=0, select bank0
   589  03D5  1303               	bcf	3,6	;RP1=0, select bank0
   590  03D6  0099               	movwf	25	;volatile
   591                           
   592                           ;lab10canvas.c: 111:      _delay((unsigned long)((5)*(1000000/4000.0)));
   593  03D7  3076               	movlw	118
   594  03D8  0099               	movwf	25	;volatile
   595                           
   596                           ;lab10canvas.c: 112:      TXREG = 99;
   597  03D9  30F9               	movlw	249
   598  03DA  00F2               	movwf	??_nuevocaracter
   599  03DB                     u117:
   600  03DB  2BDC               	nop2
   601  03DC  0BF2               	decfsz	??_nuevocaracter,f
   602  03DD  2BDB               	goto	u117
   603  03DE  2BDF               	nop2
   604  03DF  2BE0               	nop2
   605                           
   606                           ;lab10canvas.c: 113:      TXREG = 105;
   607  03E0  306F               	movlw	111
   608  03E1  1283               	bcf	3,5	;RP0=0, select bank0
   609  03E2  1303               	bcf	3,6	;RP1=0, select bank0
   610  03E3  0099               	movwf	25	;volatile
   611                           
   612                           ;lab10canvas.c: 114:      _delay((unsigned long)((5)*(1000000/4000.0)));
   613  03E4  3020               	movlw	32
   614  03E5  0099               	movwf	25	;volatile
   615                           
   616                           ;lab10canvas.c: 115:      TXREG = 111;
   617  03E6  30F9               	movlw	249
   618  03E7  00F2               	movwf	??_nuevocaracter
   619  03E8                     u127:
   620  03E8  2BE9               	nop2
   621  03E9  0BF2               	decfsz	??_nuevocaracter,f
   622  03EA  2BE8               	goto	u127
   623  03EB  2BEC               	nop2
   624  03EC  2BED               	nop2
   625                           
   626                           ;lab10canvas.c: 116:      TXREG = 110;
   627  03ED  3063               	movlw	99
   628  03EE  1283               	bcf	3,5	;RP0=0, select bank0
   629  03EF  1303               	bcf	3,6	;RP1=0, select bank0
   630  03F0  0099               	movwf	25	;volatile
   631                           
   632                           ;lab10canvas.c: 117:      _delay((unsigned long)((5)*(1000000/4000.0)));
   633  03F1  3061               	movlw	97
   634  03F2  0099               	movwf	25	;volatile
   635                           
   636                           ;lab10canvas.c: 118:      TXREG = 32;
   637  03F3  30F9               	movlw	249
   638  03F4  00F2               	movwf	??_nuevocaracter
   639  03F5                     u137:
   640  03F5  2BF6               	nop2
   641  03F6  0BF2               	decfsz	??_nuevocaracter,f
   642  03F7  2BF5               	goto	u137
   643  03F8  2BF9               	nop2
   644  03F9  2BFA               	nop2
   645                           
   646                           ;lab10canvas.c: 119:      TXREG = 100;
   647  03FA  3072               	movlw	114
   648  03FB  1283               	bcf	3,5	;RP0=0, select bank0
   649  03FC  1303               	bcf	3,6	;RP1=0, select bank0
   650  03FD  0099               	movwf	25	;volatile
   651                           
   652                           ;lab10canvas.c: 120:      _delay((unsigned long)((5)*(1000000/4000.0)));
   653  03FE  3061               	movlw	97
   654  03FF  0099               	movwf	25	;volatile
   655                           
   656                           ;lab10canvas.c: 121:      TXREG = 101;
   657  0400  30F9               	movlw	249
   658  0401  00F2               	movwf	??_nuevocaracter
   659  0402                     u147:
   660  0402  2C03               	nop2
   661  0403  0BF2               	decfsz	??_nuevocaracter,f
   662  0404  2C02               	goto	u147
   663  0405  2C06               	nop2
   664  0406  2C07               	nop2
   665                           
   666                           ;lab10canvas.c: 122:      TXREG = 115;
   667  0407  3063               	movlw	99
   668  0408  1283               	bcf	3,5	;RP0=0, select bank0
   669  0409  1303               	bcf	3,6	;RP1=0, select bank0
   670  040A  0099               	movwf	25	;volatile
   671                           
   672                           ;lab10canvas.c: 123:      _delay((unsigned long)((5)*(1000000/4000.0)));
   673  040B  3074               	movlw	116
   674  040C  0099               	movwf	25	;volatile
   675                           
   676                           ;lab10canvas.c: 124:      TXREG = 101;
   677  040D  30F9               	movlw	249
   678  040E  00F2               	movwf	??_nuevocaracter
   679  040F                     u157:
   680  040F  2C10               	nop2
   681  0410  0BF2               	decfsz	??_nuevocaracter,f
   682  0411  2C0F               	goto	u157
   683  0412  2C13               	nop2
   684  0413  2C14               	nop2
   685                           
   686                           ;lab10canvas.c: 125:      TXREG = 97;
   687  0414  3065               	movlw	101
   688  0415  1283               	bcf	3,5	;RP0=0, select bank0
   689  0416  1303               	bcf	3,6	;RP1=0, select bank0
   690  0417  0099               	movwf	25	;volatile
   691                           
   692                           ;lab10canvas.c: 126:      _delay((unsigned long)((5)*(1000000/4000.0)));
   693  0418  3072               	movlw	114
   694  0419  0099               	movwf	25	;volatile
   695                           
   696                           ;lab10canvas.c: 127:      TXREG = 32;
   697  041A  30F9               	movlw	249
   698  041B  00F2               	movwf	??_nuevocaracter
   699  041C                     u167:
   700  041C  2C1D               	nop2
   701  041D  0BF2               	decfsz	??_nuevocaracter,f
   702  041E  2C1C               	goto	u167
   703  041F  2C20               	nop2
   704  0420  2C21               	nop2
   705                           
   706                           ;lab10canvas.c: 128:      TXREG = 101;
   707  0421  303A               	movlw	58
   708  0422  1283               	bcf	3,5	;RP0=0, select bank0
   709  0423  1303               	bcf	3,6	;RP1=0, select bank0
   710  0424  0099               	movwf	25	;volatile
   711                           
   712                           ;lab10canvas.c: 129:      _delay((unsigned long)((5)*(1000000/4000.0)));
   713  0425  300D               	movlw	13
   714  0426  0099               	movwf	25	;volatile
   715  0427                     l44:
   716  0427  0008               	return
   717  0428                     __end_of_nuevocaracter:
   718                           
   719                           	psect	text2
   720  0014                     __ptext2:	
   721 ;; *************** function _menu *****************
   722 ;; Defined at:
   723 ;;		line 132 in file "lab10canvas.c"
   724 ;; Parameters:    Size  Location     Type
   725 ;;		None
   726 ;; Auto vars:     Size  Location     Type
   727 ;;		None
   728 ;; Return value:  Size  Location     Type
   729 ;;                  1    wreg      void 
   730 ;; Registers used:
   731 ;;		wreg
   732 ;; Tracked objects:
   733 ;;		On entry : 0/0
   734 ;;		On exit  : 0/0
   735 ;;		Unchanged: 0/0
   736 ;; Data sizes:     COMMON   BANK0   BANK1   BANK3   BANK2
   737 ;;      Params:         0       0       0       0       0
   738 ;;      Locals:         0       0       0       0       0
   739 ;;      Temps:          1       0       0       0       0
   740 ;;      Totals:         1       0       0       0       0
   741 ;;Total ram usage:        1 bytes
   742 ;; Hardware stack levels used:    1
   743 ;; Hardware stack levels required when called:    1
   744 ;; This function calls:
   745 ;;		Nothing
   746 ;; This function is called by:
   747 ;;		_main
   748 ;; This function uses a non-reentrant model
   749 ;;
   750                           
   751                           
   752                           ;psect for function _menu
   753  0014                     _menu:
   754  0014                     l776:	
   755                           ;incstack = 0
   756                           ; Regs used in _menu: [wreg]
   757                           
   758                           
   759                           ;lab10canvas.c: 133:      TXREG = 99;
   760  0014  1283               	bcf	3,5	;RP0=0, select bank0
   761  0015  1303               	bcf	3,6	;RP1=0, select bank0
   762  0016  1E0C               	btfss	12,4	;volatile
   763  0017  2819               	goto	u31
   764  0018  281A               	goto	u30
   765  0019                     u31:
   766  0019  2A8E               	goto	l48
   767  001A                     u30:
   768  001A                     l778:
   769                           
   770                           ;lab10canvas.c: 134:      TXREG = 117;
   771  001A  3051               	movlw	81
   772  001B  0099               	movwf	25	;volatile
   773                           
   774                           ;lab10canvas.c: 135:      _delay((unsigned long)((5)*(1000000/4000.0)));
   775  001C  3075               	movlw	117
   776  001D  0099               	movwf	25	;volatile
   777                           
   778                           ;lab10canvas.c: 136:      TXREG = 116;
   779  001E  30F9               	movlw	249
   780  001F  00F2               	movwf	??_menu
   781  0020                     u177:
   782  0020  2821               	nop2
   783  0021  0BF2               	decfsz	??_menu,f
   784  0022  2820               	goto	u177
   785  0023  2824               	nop2
   786  0024  2825               	nop2
   787                           
   788                           ;lab10canvas.c: 137:      TXREG = 97;
   789  0025  3065               	movlw	101
   790  0026  1283               	bcf	3,5	;RP0=0, select bank0
   791  0027  1303               	bcf	3,6	;RP1=0, select bank0
   792  0028  0099               	movwf	25	;volatile
   793                           
   794                           ;lab10canvas.c: 138:      _delay((unsigned long)((5)*(1000000/4000.0)));
   795  0029  3020               	movlw	32
   796  002A  0099               	movwf	25	;volatile
   797                           
   798                           ;lab10canvas.c: 139:      TXREG = 114;
   799  002B  30F9               	movlw	249
   800  002C  00F2               	movwf	??_menu
   801  002D                     u187:
   802  002D  282E               	nop2
   803  002E  0BF2               	decfsz	??_menu,f
   804  002F  282D               	goto	u187
   805  0030  2831               	nop2
   806  0031  2832               	nop2
   807                           
   808                           ;lab10canvas.c: 140:      TXREG = 63;
   809  0032  3061               	movlw	97
   810  0033  1283               	bcf	3,5	;RP0=0, select bank0
   811  0034  1303               	bcf	3,6	;RP1=0, select bank0
   812  0035  0099               	movwf	25	;volatile
   813                           
   814                           ;lab10canvas.c: 141:      _delay((unsigned long)((5)*(1000000/4000.0)));
   815  0036  3063               	movlw	99
   816  0037  0099               	movwf	25	;volatile
   817                           
   818                           ;lab10canvas.c: 142:      TXREG = 13;
   819  0038  30F9               	movlw	249
   820  0039  00F2               	movwf	??_menu
   821  003A                     u197:
   822  003A  283B               	nop2
   823  003B  0BF2               	decfsz	??_menu,f
   824  003C  283A               	goto	u197
   825  003D  283E               	nop2
   826  003E  283F               	nop2
   827                           
   828                           ;lab10canvas.c: 143:      TXREG = 40;
   829  003F  3063               	movlw	99
   830  0040  1283               	bcf	3,5	;RP0=0, select bank0
   831  0041  1303               	bcf	3,6	;RP1=0, select bank0
   832  0042  0099               	movwf	25	;volatile
   833                           
   834                           ;lab10canvas.c: 144:      _delay((unsigned long)((5)*(1000000/4000.0)));
   835  0043  3069               	movlw	105
   836  0044  0099               	movwf	25	;volatile
   837                           
   838                           ;lab10canvas.c: 145:      TXREG = 49;
   839  0045  30F9               	movlw	249
   840  0046  00F2               	movwf	??_menu
   841  0047                     u207:
   842  0047  2848               	nop2
   843  0048  0BF2               	decfsz	??_menu,f
   844  0049  2847               	goto	u207
   845  004A  284B               	nop2
   846  004B  284C               	nop2
   847                           
   848                           ;lab10canvas.c: 146:      TXREG = 41;
   849  004C  306F               	movlw	111
   850  004D  1283               	bcf	3,5	;RP0=0, select bank0
   851  004E  1303               	bcf	3,6	;RP1=0, select bank0
   852  004F  0099               	movwf	25	;volatile
   853                           
   854                           ;lab10canvas.c: 147:      _delay((unsigned long)((5)*(1000000/4000.0)));
   855  0050  306E               	movlw	110
   856  0051  0099               	movwf	25	;volatile
   857                           
   858                           ;lab10canvas.c: 148:      TXREG = 32;
   859  0052  30F9               	movlw	249
   860  0053  00F2               	movwf	??_menu
   861  0054                     u217:
   862  0054  2855               	nop2
   863  0055  0BF2               	decfsz	??_menu,f
   864  0056  2854               	goto	u217
   865  0057  2858               	nop2
   866  0058  2859               	nop2
   867                           
   868                           ;lab10canvas.c: 149:      TXREG = 68;
   869  0059  3020               	movlw	32
   870  005A  1283               	bcf	3,5	;RP0=0, select bank0
   871  005B  1303               	bcf	3,6	;RP1=0, select bank0
   872  005C  0099               	movwf	25	;volatile
   873                           
   874                           ;lab10canvas.c: 150:      _delay((unsigned long)((5)*(1000000/4000.0)));
   875  005D  3064               	movlw	100
   876  005E  0099               	movwf	25	;volatile
   877                           
   878                           ;lab10canvas.c: 151:      TXREG = 101;
   879  005F  30F9               	movlw	249
   880  0060  00F2               	movwf	??_menu
   881  0061                     u227:
   882  0061  2862               	nop2
   883  0062  0BF2               	decfsz	??_menu,f
   884  0063  2861               	goto	u227
   885  0064  2865               	nop2
   886  0065  2866               	nop2
   887                           
   888                           ;lab10canvas.c: 152:      TXREG = 115;
   889  0066  3065               	movlw	101
   890  0067  1283               	bcf	3,5	;RP0=0, select bank0
   891  0068  1303               	bcf	3,6	;RP1=0, select bank0
   892  0069  0099               	movwf	25	;volatile
   893                           
   894                           ;lab10canvas.c: 153:      _delay((unsigned long)((5)*(1000000/4000.0)));
   895  006A  3073               	movlw	115
   896  006B  0099               	movwf	25	;volatile
   897                           
   898                           ;lab10canvas.c: 154:      TXREG = 112;
   899  006C  30F9               	movlw	249
   900  006D  00F2               	movwf	??_menu
   901  006E                     u237:
   902  006E  286F               	nop2
   903  006F  0BF2               	decfsz	??_menu,f
   904  0070  286E               	goto	u237
   905  0071  2872               	nop2
   906  0072  2873               	nop2
   907                           
   908                           ;lab10canvas.c: 155:      TXREG = 108;
   909  0073  3065               	movlw	101
   910  0074  1283               	bcf	3,5	;RP0=0, select bank0
   911  0075  1303               	bcf	3,6	;RP1=0, select bank0
   912  0076  0099               	movwf	25	;volatile
   913                           
   914                           ;lab10canvas.c: 156:      _delay((unsigned long)((5)*(1000000/4000.0)));
   915  0077  3061               	movlw	97
   916  0078  0099               	movwf	25	;volatile
   917                           
   918                           ;lab10canvas.c: 157:      TXREG = 101;
   919  0079  30F9               	movlw	249
   920  007A  00F2               	movwf	??_menu
   921  007B                     u247:
   922  007B  287C               	nop2
   923  007C  0BF2               	decfsz	??_menu,f
   924  007D  287B               	goto	u247
   925  007E  287F               	nop2
   926  007F  2880               	nop2
   927                           
   928                           ;lab10canvas.c: 158:      TXREG = 103;
   929  0080  3020               	movlw	32
   930  0081  1283               	bcf	3,5	;RP0=0, select bank0
   931  0082  1303               	bcf	3,6	;RP1=0, select bank0
   932  0083  0099               	movwf	25	;volatile
   933                           
   934                           ;lab10canvas.c: 159:      _delay((unsigned long)((5)*(1000000/4000.0)));
   935  0084  3065               	movlw	101
   936  0085  0099               	movwf	25	;volatile
   937                           
   938                           ;lab10canvas.c: 160:      TXREG = 97;
   939  0086  30F9               	movlw	249
   940  0087  00F2               	movwf	??_menu
   941  0088                     u257:
   942  0088  2889               	nop2
   943  0089  0BF2               	decfsz	??_menu,f
   944  008A  2888               	goto	u257
   945  008B  288C               	nop2
   946  008C  288D               	nop2
   947                           
   948                           ;lab10canvas.c: 161:      TXREG = 114;
   949  008D  306A               	movlw	106
   950  008E  1283               	bcf	3,5	;RP0=0, select bank0
   951  008F  1303               	bcf	3,6	;RP1=0, select bank0
   952  0090  0099               	movwf	25	;volatile
   953                           
   954                           ;lab10canvas.c: 162:      _delay((unsigned long)((5)*(1000000/4000.0)));
   955  0091  3065               	movlw	101
   956  0092  0099               	movwf	25	;volatile
   957                           
   958                           ;lab10canvas.c: 163:      TXREG = 32;
   959  0093  30F9               	movlw	249
   960  0094  00F2               	movwf	??_menu
   961  0095                     u267:
   962  0095  2896               	nop2
   963  0096  0BF2               	decfsz	??_menu,f
   964  0097  2895               	goto	u267
   965  0098  2899               	nop2
   966  0099  289A               	nop2
   967                           
   968                           ;lab10canvas.c: 164:      TXREG = 99;
   969  009A  3063               	movlw	99
   970  009B  1283               	bcf	3,5	;RP0=0, select bank0
   971  009C  1303               	bcf	3,6	;RP1=0, select bank0
   972  009D  0099               	movwf	25	;volatile
   973                           
   974                           ;lab10canvas.c: 165:      _delay((unsigned long)((5)*(1000000/4000.0)));
   975  009E  3075               	movlw	117
   976  009F  0099               	movwf	25	;volatile
   977                           
   978                           ;lab10canvas.c: 166:      TXREG = 97;
   979  00A0  30F9               	movlw	249
   980  00A1  00F2               	movwf	??_menu
   981  00A2                     u277:
   982  00A2  28A3               	nop2
   983  00A3  0BF2               	decfsz	??_menu,f
   984  00A4  28A2               	goto	u277
   985  00A5  28A6               	nop2
   986  00A6  28A7               	nop2
   987                           
   988                           ;lab10canvas.c: 167:      TXREG = 100;
   989  00A7  3074               	movlw	116
   990  00A8  1283               	bcf	3,5	;RP0=0, select bank0
   991  00A9  1303               	bcf	3,6	;RP1=0, select bank0
   992  00AA  0099               	movwf	25	;volatile
   993                           
   994                           ;lab10canvas.c: 168:      _delay((unsigned long)((5)*(1000000/4000.0)));
   995  00AB  3061               	movlw	97
   996  00AC  0099               	movwf	25	;volatile
   997                           
   998                           ;lab10canvas.c: 169:      TXREG = 101;
   999  00AD  30F9               	movlw	249
  1000  00AE  00F2               	movwf	??_menu
  1001  00AF                     u287:
  1002  00AF  28B0               	nop2
  1003  00B0  0BF2               	decfsz	??_menu,f
  1004  00B1  28AF               	goto	u287
  1005  00B2  28B3               	nop2
  1006  00B3  28B4               	nop2
  1007                           
  1008                           ;lab10canvas.c: 170:      TXREG = 110;
  1009  00B4  3072               	movlw	114
  1010  00B5  1283               	bcf	3,5	;RP0=0, select bank0
  1011  00B6  1303               	bcf	3,6	;RP1=0, select bank0
  1012  00B7  0099               	movwf	25	;volatile
  1013                           
  1014                           ;lab10canvas.c: 171:      _delay((unsigned long)((5)*(1000000/4000.0)));
  1015  00B8  303F               	movlw	63
  1016  00B9  0099               	movwf	25	;volatile
  1017                           
  1018                           ;lab10canvas.c: 172:      TXREG = 97;
  1019  00BA  30F9               	movlw	249
  1020  00BB  00F2               	movwf	??_menu
  1021  00BC                     u297:
  1022  00BC  28BD               	nop2
  1023  00BD  0BF2               	decfsz	??_menu,f
  1024  00BE  28BC               	goto	u297
  1025  00BF  28C0               	nop2
  1026  00C0  28C1               	nop2
  1027                           
  1028                           ;lab10canvas.c: 173:      TXREG = 32;
  1029  00C1  300D               	movlw	13
  1030  00C2  1283               	bcf	3,5	;RP0=0, select bank0
  1031  00C3  1303               	bcf	3,6	;RP1=0, select bank0
  1032  00C4  0099               	movwf	25	;volatile
  1033                           
  1034                           ;lab10canvas.c: 174:      _delay((unsigned long)((5)*(1000000/4000.0)));
  1035  00C5  3028               	movlw	40
  1036  00C6  0099               	movwf	25	;volatile
  1037                           
  1038                           ;lab10canvas.c: 175:      TXREG = 100;
  1039  00C7  30F9               	movlw	249
  1040  00C8  00F2               	movwf	??_menu
  1041  00C9                     u307:
  1042  00C9  28CA               	nop2
  1043  00CA  0BF2               	decfsz	??_menu,f
  1044  00CB  28C9               	goto	u307
  1045  00CC  28CD               	nop2
  1046  00CD  28CE               	nop2
  1047                           
  1048                           ;lab10canvas.c: 176:      TXREG = 101;
  1049  00CE  3031               	movlw	49
  1050  00CF  1283               	bcf	3,5	;RP0=0, select bank0
  1051  00D0  1303               	bcf	3,6	;RP1=0, select bank0
  1052  00D1  0099               	movwf	25	;volatile
  1053                           
  1054                           ;lab10canvas.c: 177:      _delay((unsigned long)((5)*(1000000/4000.0)));
  1055  00D2  3029               	movlw	41
  1056  00D3  0099               	movwf	25	;volatile
  1057                           
  1058                           ;lab10canvas.c: 178:      TXREG = 32;
  1059  00D4  30F9               	movlw	249
  1060  00D5  00F2               	movwf	??_menu
  1061  00D6                     u317:
  1062  00D6  28D7               	nop2
  1063  00D7  0BF2               	decfsz	??_menu,f
  1064  00D8  28D6               	goto	u317
  1065  00D9  28DA               	nop2
  1066  00DA  28DB               	nop2
  1067                           
  1068                           ;lab10canvas.c: 179:      TXREG = 99;
  1069  00DB  3020               	movlw	32
  1070  00DC  1283               	bcf	3,5	;RP0=0, select bank0
  1071  00DD  1303               	bcf	3,6	;RP1=0, select bank0
  1072  00DE  0099               	movwf	25	;volatile
  1073                           
  1074                           ;lab10canvas.c: 180:      _delay((unsigned long)((5)*(1000000/4000.0)));
  1075  00DF  3044               	movlw	68
  1076  00E0  0099               	movwf	25	;volatile
  1077                           
  1078                           ;lab10canvas.c: 181:      TXREG = 97;
  1079  00E1  30F9               	movlw	249
  1080  00E2  00F2               	movwf	??_menu
  1081  00E3                     u327:
  1082  00E3  28E4               	nop2
  1083  00E4  0BF2               	decfsz	??_menu,f
  1084  00E5  28E3               	goto	u327
  1085  00E6  28E7               	nop2
  1086  00E7  28E8               	nop2
  1087                           
  1088                           ;lab10canvas.c: 182:      TXREG = 114;
  1089  00E8  3065               	movlw	101
  1090  00E9  1283               	bcf	3,5	;RP0=0, select bank0
  1091  00EA  1303               	bcf	3,6	;RP1=0, select bank0
  1092  00EB  0099               	movwf	25	;volatile
  1093                           
  1094                           ;lab10canvas.c: 183:      _delay((unsigned long)((5)*(1000000/4000.0)));
  1095  00EC  3073               	movlw	115
  1096  00ED  0099               	movwf	25	;volatile
  1097                           
  1098                           ;lab10canvas.c: 184:      TXREG = 97;
  1099  00EE  30F9               	movlw	249
  1100  00EF  00F2               	movwf	??_menu
  1101  00F0                     u337:
  1102  00F0  28F1               	nop2
  1103  00F1  0BF2               	decfsz	??_menu,f
  1104  00F2  28F0               	goto	u337
  1105  00F3  28F4               	nop2
  1106  00F4  28F5               	nop2
  1107                           
  1108                           ;lab10canvas.c: 185:      TXREG = 99;
  1109  00F5  3070               	movlw	112
  1110  00F6  1283               	bcf	3,5	;RP0=0, select bank0
  1111  00F7  1303               	bcf	3,6	;RP1=0, select bank0
  1112  00F8  0099               	movwf	25	;volatile
  1113                           
  1114                           ;lab10canvas.c: 186:      _delay((unsigned long)((5)*(1000000/4000.0)));
  1115  00F9  306C               	movlw	108
  1116  00FA  0099               	movwf	25	;volatile
  1117                           
  1118                           ;lab10canvas.c: 187:      TXREG = 116;
  1119  00FB  30F9               	movlw	249
  1120  00FC  00F2               	movwf	??_menu
  1121  00FD                     u347:
  1122  00FD  28FE               	nop2
  1123  00FE  0BF2               	decfsz	??_menu,f
  1124  00FF  28FD               	goto	u347
  1125  0100  2901               	nop2
  1126  0101  2902               	nop2
  1127                           
  1128                           ;lab10canvas.c: 188:      TXREG = 101;
  1129  0102  3065               	movlw	101
  1130  0103  1283               	bcf	3,5	;RP0=0, select bank0
  1131  0104  1303               	bcf	3,6	;RP1=0, select bank0
  1132  0105  0099               	movwf	25	;volatile
  1133                           
  1134                           ;lab10canvas.c: 189:      _delay((unsigned long)((5)*(1000000/4000.0)));
  1135  0106  3067               	movlw	103
  1136  0107  0099               	movwf	25	;volatile
  1137                           
  1138                           ;lab10canvas.c: 190:      TXREG = 114;
  1139  0108  30F9               	movlw	249
  1140  0109  00F2               	movwf	??_menu
  1141  010A                     u357:
  1142  010A  290B               	nop2
  1143  010B  0BF2               	decfsz	??_menu,f
  1144  010C  290A               	goto	u357
  1145  010D  290E               	nop2
  1146  010E  290F               	nop2
  1147                           
  1148                           ;lab10canvas.c: 191:      TXREG = 101;
  1149  010F  3061               	movlw	97
  1150  0110  1283               	bcf	3,5	;RP0=0, select bank0
  1151  0111  1303               	bcf	3,6	;RP1=0, select bank0
  1152  0112  0099               	movwf	25	;volatile
  1153                           
  1154                           ;lab10canvas.c: 192:      _delay((unsigned long)((5)*(1000000/4000.0)));
  1155  0113  3072               	movlw	114
  1156  0114  0099               	movwf	25	;volatile
  1157                           
  1158                           ;lab10canvas.c: 193:      TXREG = 115;
  1159  0115  30F9               	movlw	249
  1160  0116  00F2               	movwf	??_menu
  1161  0117                     u367:
  1162  0117  2918               	nop2
  1163  0118  0BF2               	decfsz	??_menu,f
  1164  0119  2917               	goto	u367
  1165  011A  291B               	nop2
  1166  011B  291C               	nop2
  1167                           
  1168                           ;lab10canvas.c: 194:      TXREG = 13;
  1169  011C  3020               	movlw	32
  1170  011D  1283               	bcf	3,5	;RP0=0, select bank0
  1171  011E  1303               	bcf	3,6	;RP1=0, select bank0
  1172  011F  0099               	movwf	25	;volatile
  1173                           
  1174                           ;lab10canvas.c: 195:      _delay((unsigned long)((5)*(1000000/4000.0)));
  1175  0120  3063               	movlw	99
  1176  0121  0099               	movwf	25	;volatile
  1177                           
  1178                           ;lab10canvas.c: 196:      TXREG = 40;
  1179  0122  30F9               	movlw	249
  1180  0123  00F2               	movwf	??_menu
  1181  0124                     u377:
  1182  0124  2925               	nop2
  1183  0125  0BF2               	decfsz	??_menu,f
  1184  0126  2924               	goto	u377
  1185  0127  2928               	nop2
  1186  0128  2929               	nop2
  1187                           
  1188                           ;lab10canvas.c: 197:      TXREG = 50;
  1189  0129  3061               	movlw	97
  1190  012A  1283               	bcf	3,5	;RP0=0, select bank0
  1191  012B  1303               	bcf	3,6	;RP1=0, select bank0
  1192  012C  0099               	movwf	25	;volatile
  1193                           
  1194                           ;lab10canvas.c: 198:      _delay((unsigned long)((5)*(1000000/4000.0)));
  1195  012D  3064               	movlw	100
  1196  012E  0099               	movwf	25	;volatile
  1197                           
  1198                           ;lab10canvas.c: 199:      TXREG = 41;
  1199  012F  30F9               	movlw	249
  1200  0130  00F2               	movwf	??_menu
  1201  0131                     u387:
  1202  0131  2932               	nop2
  1203  0132  0BF2               	decfsz	??_menu,f
  1204  0133  2931               	goto	u387
  1205  0134  2935               	nop2
  1206  0135  2936               	nop2
  1207                           
  1208                           ;lab10canvas.c: 200:      TXREG = 32;
  1209  0136  3065               	movlw	101
  1210  0137  1283               	bcf	3,5	;RP0=0, select bank0
  1211  0138  1303               	bcf	3,6	;RP1=0, select bank0
  1212  0139  0099               	movwf	25	;volatile
  1213                           
  1214                           ;lab10canvas.c: 201:      _delay((unsigned long)((5)*(1000000/4000.0)));
  1215  013A  306E               	movlw	110
  1216  013B  0099               	movwf	25	;volatile
  1217                           
  1218                           ;lab10canvas.c: 202:      TXREG = 67;
  1219  013C  30F9               	movlw	249
  1220  013D  00F2               	movwf	??_menu
  1221  013E                     u397:
  1222  013E  293F               	nop2
  1223  013F  0BF2               	decfsz	??_menu,f
  1224  0140  293E               	goto	u397
  1225  0141  2942               	nop2
  1226  0142  2943               	nop2
  1227                           
  1228                           ;lab10canvas.c: 203:      TXREG = 97;
  1229  0143  3061               	movlw	97
  1230  0144  1283               	bcf	3,5	;RP0=0, select bank0
  1231  0145  1303               	bcf	3,6	;RP1=0, select bank0
  1232  0146  0099               	movwf	25	;volatile
  1233                           
  1234                           ;lab10canvas.c: 204:      _delay((unsigned long)((5)*(1000000/4000.0)));
  1235  0147  3020               	movlw	32
  1236  0148  0099               	movwf	25	;volatile
  1237                           
  1238                           ;lab10canvas.c: 205:      TXREG = 109;
  1239  0149  30F9               	movlw	249
  1240  014A  00F2               	movwf	??_menu
  1241  014B                     u407:
  1242  014B  294C               	nop2
  1243  014C  0BF2               	decfsz	??_menu,f
  1244  014D  294B               	goto	u407
  1245  014E  294F               	nop2
  1246  014F  2950               	nop2
  1247                           
  1248                           ;lab10canvas.c: 206:      TXREG = 98;
  1249  0150  3064               	movlw	100
  1250  0151  1283               	bcf	3,5	;RP0=0, select bank0
  1251  0152  1303               	bcf	3,6	;RP1=0, select bank0
  1252  0153  0099               	movwf	25	;volatile
  1253                           
  1254                           ;lab10canvas.c: 207:      _delay((unsigned long)((5)*(1000000/4000.0)));
  1255  0154  3065               	movlw	101
  1256  0155  0099               	movwf	25	;volatile
  1257                           
  1258                           ;lab10canvas.c: 208:      TXREG = 105;
  1259  0156  30F9               	movlw	249
  1260  0157  00F2               	movwf	??_menu
  1261  0158                     u417:
  1262  0158  2959               	nop2
  1263  0159  0BF2               	decfsz	??_menu,f
  1264  015A  2958               	goto	u417
  1265  015B  295C               	nop2
  1266  015C  295D               	nop2
  1267                           
  1268                           ;lab10canvas.c: 209:      TXREG = 97;
  1269  015D  3020               	movlw	32
  1270  015E  1283               	bcf	3,5	;RP0=0, select bank0
  1271  015F  1303               	bcf	3,6	;RP1=0, select bank0
  1272  0160  0099               	movwf	25	;volatile
  1273                           
  1274                           ;lab10canvas.c: 210:      _delay((unsigned long)((5)*(1000000/4000.0)));
  1275  0161  3063               	movlw	99
  1276  0162  0099               	movwf	25	;volatile
  1277                           
  1278                           ;lab10canvas.c: 211:      TXREG = 114;
  1279  0163  30F9               	movlw	249
  1280  0164  00F2               	movwf	??_menu
  1281  0165                     u427:
  1282  0165  2966               	nop2
  1283  0166  0BF2               	decfsz	??_menu,f
  1284  0167  2965               	goto	u427
  1285  0168  2969               	nop2
  1286  0169  296A               	nop2
  1287                           
  1288                           ;lab10canvas.c: 212:      TXREG = 32;
  1289  016A  3061               	movlw	97
  1290  016B  1283               	bcf	3,5	;RP0=0, select bank0
  1291  016C  1303               	bcf	3,6	;RP1=0, select bank0
  1292  016D  0099               	movwf	25	;volatile
  1293                           
  1294                           ;lab10canvas.c: 213:      _delay((unsigned long)((5)*(1000000/4000.0)));
  1295  016E  3072               	movlw	114
  1296  016F  0099               	movwf	25	;volatile
  1297                           
  1298                           ;lab10canvas.c: 214:      TXREG = 80;
  1299  0170  30F9               	movlw	249
  1300  0171  00F2               	movwf	??_menu
  1301  0172                     u437:
  1302  0172  2973               	nop2
  1303  0173  0BF2               	decfsz	??_menu,f
  1304  0174  2972               	goto	u437
  1305  0175  2976               	nop2
  1306  0176  2977               	nop2
  1307                           
  1308                           ;lab10canvas.c: 215:      TXREG = 79;
  1309  0177  3061               	movlw	97
  1310  0178  1283               	bcf	3,5	;RP0=0, select bank0
  1311  0179  1303               	bcf	3,6	;RP1=0, select bank0
  1312  017A  0099               	movwf	25	;volatile
  1313                           
  1314                           ;lab10canvas.c: 216:      _delay((unsigned long)((5)*(1000000/4000.0)));
  1315  017B  3063               	movlw	99
  1316  017C  0099               	movwf	25	;volatile
  1317                           
  1318                           ;lab10canvas.c: 217:      TXREG = 82;
  1319  017D  30F9               	movlw	249
  1320  017E  00F2               	movwf	??_menu
  1321  017F                     u447:
  1322  017F  2980               	nop2
  1323  0180  0BF2               	decfsz	??_menu,f
  1324  0181  297F               	goto	u447
  1325  0182  2983               	nop2
  1326  0183  2984               	nop2
  1327                           
  1328                           ;lab10canvas.c: 218:      TXREG = 84;
  1329  0184  3074               	movlw	116
  1330  0185  1283               	bcf	3,5	;RP0=0, select bank0
  1331  0186  1303               	bcf	3,6	;RP1=0, select bank0
  1332  0187  0099               	movwf	25	;volatile
  1333                           
  1334                           ;lab10canvas.c: 219:      _delay((unsigned long)((5)*(1000000/4000.0)));
  1335  0188  3065               	movlw	101
  1336  0189  0099               	movwf	25	;volatile
  1337                           
  1338                           ;lab10canvas.c: 220:      TXREG = 65;
  1339  018A  30F9               	movlw	249
  1340  018B  00F2               	movwf	??_menu
  1341  018C                     u457:
  1342  018C  298D               	nop2
  1343  018D  0BF2               	decfsz	??_menu,f
  1344  018E  298C               	goto	u457
  1345  018F  2990               	nop2
  1346  0190  2991               	nop2
  1347                           
  1348                           ;lab10canvas.c: 221:      TXREG = 13;
  1349  0191  3072               	movlw	114
  1350  0192  1283               	bcf	3,5	;RP0=0, select bank0
  1351  0193  1303               	bcf	3,6	;RP1=0, select bank0
  1352  0194  0099               	movwf	25	;volatile
  1353                           
  1354                           ;lab10canvas.c: 222:      _delay((unsigned long)((5)*(1000000/4000.0)));
  1355  0195  3065               	movlw	101
  1356  0196  0099               	movwf	25	;volatile
  1357                           
  1358                           ;lab10canvas.c: 223:      TXREG = 40;
  1359  0197  30F9               	movlw	249
  1360  0198  00F2               	movwf	??_menu
  1361  0199                     u467:
  1362  0199  299A               	nop2
  1363  019A  0BF2               	decfsz	??_menu,f
  1364  019B  2999               	goto	u467
  1365  019C  299D               	nop2
  1366  019D  299E               	nop2
  1367                           
  1368                           ;lab10canvas.c: 224:      TXREG = 51;
  1369  019E  3073               	movlw	115
  1370  019F  1283               	bcf	3,5	;RP0=0, select bank0
  1371  01A0  1303               	bcf	3,6	;RP1=0, select bank0
  1372  01A1  0099               	movwf	25	;volatile
  1373                           
  1374                           ;lab10canvas.c: 225:      _delay((unsigned long)((5)*(1000000/4000.0)));
  1375  01A2  300D               	movlw	13
  1376  01A3  0099               	movwf	25	;volatile
  1377                           
  1378                           ;lab10canvas.c: 226:      TXREG = 41;
  1379  01A4  30F9               	movlw	249
  1380  01A5  00F2               	movwf	??_menu
  1381  01A6                     u477:
  1382  01A6  29A7               	nop2
  1383  01A7  0BF2               	decfsz	??_menu,f
  1384  01A8  29A6               	goto	u477
  1385  01A9  29AA               	nop2
  1386  01AA  29AB               	nop2
  1387                           
  1388                           ;lab10canvas.c: 227:      TXREG = 32;
  1389  01AB  3028               	movlw	40
  1390  01AC  1283               	bcf	3,5	;RP0=0, select bank0
  1391  01AD  1303               	bcf	3,6	;RP1=0, select bank0
  1392  01AE  0099               	movwf	25	;volatile
  1393                           
  1394                           ;lab10canvas.c: 228:      _delay((unsigned long)((5)*(1000000/4000.0)));
  1395  01AF  3032               	movlw	50
  1396  01B0  0099               	movwf	25	;volatile
  1397                           
  1398                           ;lab10canvas.c: 229:      TXREG = 67;
  1399  01B1  30F9               	movlw	249
  1400  01B2  00F2               	movwf	??_menu
  1401  01B3                     u487:
  1402  01B3  29B4               	nop2
  1403  01B4  0BF2               	decfsz	??_menu,f
  1404  01B5  29B3               	goto	u487
  1405  01B6  29B7               	nop2
  1406  01B7  29B8               	nop2
  1407                           
  1408                           ;lab10canvas.c: 230:      TXREG = 97;
  1409  01B8  3029               	movlw	41
  1410  01B9  1283               	bcf	3,5	;RP0=0, select bank0
  1411  01BA  1303               	bcf	3,6	;RP1=0, select bank0
  1412  01BB  0099               	movwf	25	;volatile
  1413                           
  1414                           ;lab10canvas.c: 231:      _delay((unsigned long)((5)*(1000000/4000.0)));
  1415  01BC  3020               	movlw	32
  1416  01BD  0099               	movwf	25	;volatile
  1417                           
  1418                           ;lab10canvas.c: 232:      TXREG = 109;
  1419  01BE  30F9               	movlw	249
  1420  01BF  00F2               	movwf	??_menu
  1421  01C0                     u497:
  1422  01C0  29C1               	nop2
  1423  01C1  0BF2               	decfsz	??_menu,f
  1424  01C2  29C0               	goto	u497
  1425  01C3  29C4               	nop2
  1426  01C4  29C5               	nop2
  1427                           
  1428                           ;lab10canvas.c: 233:      TXREG = 98;
  1429  01C5  3043               	movlw	67
  1430  01C6  1283               	bcf	3,5	;RP0=0, select bank0
  1431  01C7  1303               	bcf	3,6	;RP1=0, select bank0
  1432  01C8  0099               	movwf	25	;volatile
  1433                           
  1434                           ;lab10canvas.c: 234:      _delay((unsigned long)((5)*(1000000/4000.0)));
  1435  01C9  3061               	movlw	97
  1436  01CA  0099               	movwf	25	;volatile
  1437                           
  1438                           ;lab10canvas.c: 235:      TXREG = 105;
  1439  01CB  30F9               	movlw	249
  1440  01CC  00F2               	movwf	??_menu
  1441  01CD                     u507:
  1442  01CD  29CE               	nop2
  1443  01CE  0BF2               	decfsz	??_menu,f
  1444  01CF  29CD               	goto	u507
  1445  01D0  29D1               	nop2
  1446  01D1  29D2               	nop2
  1447                           
  1448                           ;lab10canvas.c: 236:      TXREG = 97;
  1449  01D2  306D               	movlw	109
  1450  01D3  1283               	bcf	3,5	;RP0=0, select bank0
  1451  01D4  1303               	bcf	3,6	;RP1=0, select bank0
  1452  01D5  0099               	movwf	25	;volatile
  1453                           
  1454                           ;lab10canvas.c: 237:      _delay((unsigned long)((5)*(1000000/4000.0)));
  1455  01D6  3062               	movlw	98
  1456  01D7  0099               	movwf	25	;volatile
  1457                           
  1458                           ;lab10canvas.c: 238:      TXREG = 114;
  1459  01D8  30F9               	movlw	249
  1460  01D9  00F2               	movwf	??_menu
  1461  01DA                     u517:
  1462  01DA  29DB               	nop2
  1463  01DB  0BF2               	decfsz	??_menu,f
  1464  01DC  29DA               	goto	u517
  1465  01DD  29DE               	nop2
  1466  01DE  29DF               	nop2
  1467                           
  1468                           ;lab10canvas.c: 239:      TXREG = 32;
  1469  01DF  3069               	movlw	105
  1470  01E0  1283               	bcf	3,5	;RP0=0, select bank0
  1471  01E1  1303               	bcf	3,6	;RP1=0, select bank0
  1472  01E2  0099               	movwf	25	;volatile
  1473                           
  1474                           ;lab10canvas.c: 240:      _delay((unsigned long)((5)*(1000000/4000.0)));
  1475  01E3  3061               	movlw	97
  1476  01E4  0099               	movwf	25	;volatile
  1477                           
  1478                           ;lab10canvas.c: 241:      TXREG = 80;
  1479  01E5  30F9               	movlw	249
  1480  01E6  00F2               	movwf	??_menu
  1481  01E7                     u527:
  1482  01E7  29E8               	nop2
  1483  01E8  0BF2               	decfsz	??_menu,f
  1484  01E9  29E7               	goto	u527
  1485  01EA  29EB               	nop2
  1486  01EB  29EC               	nop2
  1487                           
  1488                           ;lab10canvas.c: 242:      TXREG = 79;
  1489  01EC  3072               	movlw	114
  1490  01ED  1283               	bcf	3,5	;RP0=0, select bank0
  1491  01EE  1303               	bcf	3,6	;RP1=0, select bank0
  1492  01EF  0099               	movwf	25	;volatile
  1493                           
  1494                           ;lab10canvas.c: 243:      _delay((unsigned long)((5)*(1000000/4000.0)));
  1495  01F0  3020               	movlw	32
  1496  01F1  0099               	movwf	25	;volatile
  1497                           
  1498                           ;lab10canvas.c: 244:      TXREG = 82;
  1499  01F2  30F9               	movlw	249
  1500  01F3  00F2               	movwf	??_menu
  1501  01F4                     u537:
  1502  01F4  29F5               	nop2
  1503  01F5  0BF2               	decfsz	??_menu,f
  1504  01F6  29F4               	goto	u537
  1505  01F7  29F8               	nop2
  1506  01F8  29F9               	nop2
  1507                           
  1508                           ;lab10canvas.c: 245:      TXREG = 84;
  1509  01F9  3050               	movlw	80
  1510  01FA  1283               	bcf	3,5	;RP0=0, select bank0
  1511  01FB  1303               	bcf	3,6	;RP1=0, select bank0
  1512  01FC  0099               	movwf	25	;volatile
  1513                           
  1514                           ;lab10canvas.c: 246:      _delay((unsigned long)((5)*(1000000/4000.0)));
  1515  01FD  304F               	movlw	79
  1516  01FE  0099               	movwf	25	;volatile
  1517                           
  1518                           ;lab10canvas.c: 247:      TXREG = 66;
  1519  01FF  30F9               	movlw	249
  1520  0200  00F2               	movwf	??_menu
  1521  0201                     u547:
  1522  0201  2A02               	nop2
  1523  0202  0BF2               	decfsz	??_menu,f
  1524  0203  2A01               	goto	u547
  1525  0204  2A05               	nop2
  1526  0205  2A06               	nop2
  1527                           
  1528                           ;lab10canvas.c: 248:      TXREG = 13;}
  1529  0206  3052               	movlw	82
  1530  0207  1283               	bcf	3,5	;RP0=0, select bank0
  1531  0208  1303               	bcf	3,6	;RP1=0, select bank0
  1532  0209  0099               	movwf	25	;volatile
  1533                           
  1534                           ;lab10canvas.c: 249: }
  1535  020A  3054               	movlw	84
  1536  020B  0099               	movwf	25	;volatile
  1537                           
  1538                           ;lab10canvas.c: 250: 
  1539  020C  30F9               	movlw	249
  1540  020D  00F2               	movwf	??_menu
  1541  020E                     u557:
  1542  020E  2A0F               	nop2
  1543  020F  0BF2               	decfsz	??_menu,f
  1544  0210  2A0E               	goto	u557
  1545  0211  2A12               	nop2
  1546  0212  2A13               	nop2
  1547                           
  1548                           ;lab10canvas.c: 251: void __attribute__((picinterrupt(("")))) isr(void){
  1549  0213  3041               	movlw	65
  1550  0214  1283               	bcf	3,5	;RP0=0, select bank0
  1551  0215  1303               	bcf	3,6	;RP1=0, select bank0
  1552  0216  0099               	movwf	25	;volatile
  1553                           
  1554                           ;lab10canvas.c: 252: 
  1555  0217  300D               	movlw	13
  1556  0218  0099               	movwf	25	;volatile
  1557                           
  1558                           ;lab10canvas.c: 253:     if (PIR1bits.RCIF) {
  1559  0219  30F9               	movlw	249
  1560  021A  00F2               	movwf	??_menu
  1561  021B                     u567:
  1562  021B  2A1C               	nop2
  1563  021C  0BF2               	decfsz	??_menu,f
  1564  021D  2A1B               	goto	u567
  1565  021E  2A1F               	nop2
  1566  021F  2A20               	nop2
  1567                           
  1568                           ;lab10canvas.c: 254: 
  1569  0220  3028               	movlw	40
  1570  0221  1283               	bcf	3,5	;RP0=0, select bank0
  1571  0222  1303               	bcf	3,6	;RP1=0, select bank0
  1572  0223  0099               	movwf	25	;volatile
  1573                           
  1574                           ;lab10canvas.c: 255:     }
  1575  0224  3033               	movlw	51
  1576  0225  0099               	movwf	25	;volatile
  1577                           
  1578                           ;lab10canvas.c: 256: }
  1579  0226  30F9               	movlw	249
  1580  0227  00F2               	movwf	??_menu
  1581  0228                     u577:
  1582  0228  2A29               	nop2
  1583  0229  0BF2               	decfsz	??_menu,f
  1584  022A  2A28               	goto	u577
  1585  022B  2A2C               	nop2
  1586  022C  2A2D               	nop2
  1587                           
  1588                           ;lab10canvas.c: 257: 
  1589  022D  3029               	movlw	41
  1590  022E  1283               	bcf	3,5	;RP0=0, select bank0
  1591  022F  1303               	bcf	3,6	;RP1=0, select bank0
  1592  0230  0099               	movwf	25	;volatile
  1593                           
  1594                           ;lab10canvas.c: 258: void main(void) {
  1595  0231  3020               	movlw	32
  1596  0232  0099               	movwf	25	;volatile
  1597                           
  1598                           ;lab10canvas.c: 259: 
  1599  0233  30F9               	movlw	249
  1600  0234  00F2               	movwf	??_menu
  1601  0235                     u587:
  1602  0235  2A36               	nop2
  1603  0236  0BF2               	decfsz	??_menu,f
  1604  0237  2A35               	goto	u587
  1605  0238  2A39               	nop2
  1606  0239  2A3A               	nop2
  1607                           
  1608                           ;lab10canvas.c: 260: 
  1609  023A  3043               	movlw	67
  1610  023B  1283               	bcf	3,5	;RP0=0, select bank0
  1611  023C  1303               	bcf	3,6	;RP1=0, select bank0
  1612  023D  0099               	movwf	25	;volatile
  1613                           
  1614                           ;lab10canvas.c: 261:     OSCCONbits.IRCF = 0b100;
  1615  023E  3061               	movlw	97
  1616  023F  0099               	movwf	25	;volatile
  1617                           
  1618                           ;lab10canvas.c: 262:     OSCCONbits.SCS = 1;
  1619  0240  30F9               	movlw	249
  1620  0241  00F2               	movwf	??_menu
  1621  0242                     u597:
  1622  0242  2A43               	nop2
  1623  0243  0BF2               	decfsz	??_menu,f
  1624  0244  2A42               	goto	u597
  1625  0245  2A46               	nop2
  1626  0246  2A47               	nop2
  1627                           
  1628                           ;lab10canvas.c: 263: 
  1629  0247  306D               	movlw	109
  1630  0248  1283               	bcf	3,5	;RP0=0, select bank0
  1631  0249  1303               	bcf	3,6	;RP1=0, select bank0
  1632  024A  0099               	movwf	25	;volatile
  1633                           
  1634                           ;lab10canvas.c: 264:     ANSELH = 0;
  1635  024B  3062               	movlw	98
  1636  024C  0099               	movwf	25	;volatile
  1637                           
  1638                           ;lab10canvas.c: 265:     ANSEL = 0;
  1639  024D  30F9               	movlw	249
  1640  024E  00F2               	movwf	??_menu
  1641  024F                     u607:
  1642  024F  2A50               	nop2
  1643  0250  0BF2               	decfsz	??_menu,f
  1644  0251  2A4F               	goto	u607
  1645  0252  2A53               	nop2
  1646  0253  2A54               	nop2
  1647                           
  1648                           ;lab10canvas.c: 266:     TRISA = 0;
  1649  0254  3069               	movlw	105
  1650  0255  1283               	bcf	3,5	;RP0=0, select bank0
  1651  0256  1303               	bcf	3,6	;RP1=0, select bank0
  1652  0257  0099               	movwf	25	;volatile
  1653                           
  1654                           ;lab10canvas.c: 267:     TRISB = 0;
  1655  0258  3061               	movlw	97
  1656  0259  0099               	movwf	25	;volatile
  1657                           
  1658                           ;lab10canvas.c: 268:     PORTA = 0;
  1659  025A  30F9               	movlw	249
  1660  025B  00F2               	movwf	??_menu
  1661  025C                     u617:
  1662  025C  2A5D               	nop2
  1663  025D  0BF2               	decfsz	??_menu,f
  1664  025E  2A5C               	goto	u617
  1665  025F  2A60               	nop2
  1666  0260  2A61               	nop2
  1667                           
  1668                           ;lab10canvas.c: 269:     PORTB = 0;
  1669  0261  3072               	movlw	114
  1670  0262  1283               	bcf	3,5	;RP0=0, select bank0
  1671  0263  1303               	bcf	3,6	;RP1=0, select bank0
  1672  0264  0099               	movwf	25	;volatile
  1673                           
  1674                           ;lab10canvas.c: 270: 
  1675  0265  3020               	movlw	32
  1676  0266  0099               	movwf	25	;volatile
  1677                           
  1678                           ;lab10canvas.c: 271:     TXSTAbits.SYNC = 0;
  1679  0267  30F9               	movlw	249
  1680  0268  00F2               	movwf	??_menu
  1681  0269                     u627:
  1682  0269  2A6A               	nop2
  1683  026A  0BF2               	decfsz	??_menu,f
  1684  026B  2A69               	goto	u627
  1685  026C  2A6D               	nop2
  1686  026D  2A6E               	nop2
  1687                           
  1688                           ;lab10canvas.c: 272:     TXSTAbits.BRGH = 1;
  1689  026E  3050               	movlw	80
  1690  026F  1283               	bcf	3,5	;RP0=0, select bank0
  1691  0270  1303               	bcf	3,6	;RP1=0, select bank0
  1692  0271  0099               	movwf	25	;volatile
  1693                           
  1694                           ;lab10canvas.c: 273:     BAUDCTLbits.BRG16 = 1;
  1695  0272  304F               	movlw	79
  1696  0273  0099               	movwf	25	;volatile
  1697                           
  1698                           ;lab10canvas.c: 274:     SPBRG = 25;
  1699  0274  30F9               	movlw	249
  1700  0275  00F2               	movwf	??_menu
  1701  0276                     u637:
  1702  0276  2A77               	nop2
  1703  0277  0BF2               	decfsz	??_menu,f
  1704  0278  2A76               	goto	u637
  1705  0279  2A7A               	nop2
  1706  027A  2A7B               	nop2
  1707                           
  1708                           ;lab10canvas.c: 275:     SPBRGH = 0;
  1709  027B  3052               	movlw	82
  1710  027C  1283               	bcf	3,5	;RP0=0, select bank0
  1711  027D  1303               	bcf	3,6	;RP1=0, select bank0
  1712  027E  0099               	movwf	25	;volatile
  1713                           
  1714                           ;lab10canvas.c: 276:     RCSTAbits.SPEN = 1;
  1715  027F  3054               	movlw	84
  1716  0280  0099               	movwf	25	;volatile
  1717                           
  1718                           ;lab10canvas.c: 277:     RCSTAbits.RX9 = 0;
  1719  0281  30F9               	movlw	249
  1720  0282  00F2               	movwf	??_menu
  1721  0283                     u647:
  1722  0283  2A84               	nop2
  1723  0284  0BF2               	decfsz	??_menu,f
  1724  0285  2A83               	goto	u647
  1725  0286  2A87               	nop2
  1726  0287  2A88               	nop2
  1727                           
  1728                           ;lab10canvas.c: 278:     RCSTAbits.CREN = 1;
  1729  0288  3042               	movlw	66
  1730  0289  1283               	bcf	3,5	;RP0=0, select bank0
  1731  028A  1303               	bcf	3,6	;RP1=0, select bank0
  1732  028B  0099               	movwf	25	;volatile
  1733                           
  1734                           ;lab10canvas.c: 279:     TXSTAbits.TXEN = 1;
  1735  028C  300D               	movlw	13
  1736  028D  0099               	movwf	25	;volatile
  1737  028E                     l48:
  1738  028E  0008               	return
  1739  028F                     __end_of_menu:
  1740                           
  1741                           	psect	text3
  1742  028F                     __ptext3:	
  1743 ;; *************** function _caracteres *****************
  1744 ;; Defined at:
  1745 ;;		line 32 in file "lab10canvas.c"
  1746 ;; Parameters:    Size  Location     Type
  1747 ;;		None
  1748 ;; Auto vars:     Size  Location     Type
  1749 ;;		None
  1750 ;; Return value:  Size  Location     Type
  1751 ;;                  1    wreg      void 
  1752 ;; Registers used:
  1753 ;;		wreg, status,2
  1754 ;; Tracked objects:
  1755 ;;		On entry : 0/0
  1756 ;;		On exit  : 0/0
  1757 ;;		Unchanged: 0/0
  1758 ;; Data sizes:     COMMON   BANK0   BANK1   BANK3   BANK2
  1759 ;;      Params:         0       0       0       0       0
  1760 ;;      Locals:         0       0       0       0       0
  1761 ;;      Temps:          1       0       0       0       0
  1762 ;;      Totals:         1       0       0       0       0
  1763 ;;Total ram usage:        1 bytes
  1764 ;; Hardware stack levels used:    1
  1765 ;; Hardware stack levels required when called:    1
  1766 ;; This function calls:
  1767 ;;		Nothing
  1768 ;; This function is called by:
  1769 ;;		_main
  1770 ;; This function uses a non-reentrant model
  1771 ;;
  1772                           
  1773                           
  1774                           ;psect for function _caracteres
  1775  028F                     _caracteres:
  1776  028F                     l654:	
  1777                           ;incstack = 0
  1778                           ; Regs used in _caracteres: [wreg+status,2]
  1779                           
  1780                           
  1781                           ;lab10canvas.c: 33:      TXREG = 109;
  1782  028F  1283               	bcf	3,5	;RP0=0, select bank0
  1783  0290  1303               	bcf	3,6	;RP1=0, select bank0
  1784  0291  1E0C               	btfss	12,4	;volatile
  1785  0292  2A94               	goto	u11
  1786  0293  2A95               	goto	u10
  1787  0294                     u11:
  1788  0294  2B8D               	goto	l40
  1789  0295                     u10:
  1790  0295                     l656:
  1791                           
  1792                           ;lab10canvas.c: 34:      TXREG = 105;
  1793  0295  0199               	clrf	25	;volatile
  1794  0296                     l658:
  1795                           
  1796                           ;lab10canvas.c: 35:      _delay((unsigned long)((5)*(1000000/4000.0)));
  1797  0296  304C               	movlw	76
  1798  0297  0099               	movwf	25	;volatile
  1799  0298                     l660:
  1800                           
  1801                           ;lab10canvas.c: 36:      TXREG = 100;
  1802  0298  30F9               	movlw	249
  1803  0299  00F2               	movwf	??_caracteres
  1804  029A                     u657:
  1805  029A  2A9B               	nop2
  1806  029B  0BF2               	decfsz	??_caracteres,f
  1807  029C  2A9A               	goto	u657
  1808  029D  2A9E               	nop2
  1809  029E  2A9F               	nop2
  1810  029F                     l662:
  1811                           
  1812                           ;lab10canvas.c: 37:      TXREG = 97;
  1813  029F  3061               	movlw	97
  1814  02A0  1283               	bcf	3,5	;RP0=0, select bank0
  1815  02A1  1303               	bcf	3,6	;RP1=0, select bank0
  1816  02A2  0099               	movwf	25	;volatile
  1817  02A3                     l664:
  1818                           
  1819                           ;lab10canvas.c: 38:      _delay((unsigned long)((5)*(1000000/4000.0)));
  1820  02A3  3020               	movlw	32
  1821  02A4  0099               	movwf	25	;volatile
  1822  02A5                     l666:
  1823                           
  1824                           ;lab10canvas.c: 39:      TXREG = 46;
  1825  02A5  30F9               	movlw	249
  1826  02A6  00F2               	movwf	??_caracteres
  1827  02A7                     u667:
  1828  02A7  2AA8               	nop2
  1829  02A8  0BF2               	decfsz	??_caracteres,f
  1830  02A9  2AA7               	goto	u667
  1831  02AA  2AAB               	nop2
  1832  02AB  2AAC               	nop2
  1833  02AC                     l668:
  1834                           
  1835                           ;lab10canvas.c: 40:      TXREG = 13;
  1836  02AC  3063               	movlw	99
  1837  02AD  1283               	bcf	3,5	;RP0=0, select bank0
  1838  02AE  1303               	bcf	3,6	;RP1=0, select bank0
  1839  02AF  0099               	movwf	25	;volatile
  1840  02B0                     l670:
  1841                           
  1842                           ;lab10canvas.c: 41:      _delay((unsigned long)((5)*(1000000/4000.0)));
  1843  02B0  306F               	movlw	111
  1844  02B1  0099               	movwf	25	;volatile
  1845  02B2                     l672:
  1846                           
  1847                           ;lab10canvas.c: 42:      TXREG = 45;
  1848  02B2  30F9               	movlw	249
  1849  02B3  00F2               	movwf	??_caracteres
  1850  02B4                     u677:
  1851  02B4  2AB5               	nop2
  1852  02B5  0BF2               	decfsz	??_caracteres,f
  1853  02B6  2AB4               	goto	u677
  1854  02B7  2AB8               	nop2
  1855  02B8  2AB9               	nop2
  1856  02B9                     l674:
  1857                           
  1858                           ;lab10canvas.c: 43:      TXREG = 97;
  1859  02B9  306D               	movlw	109
  1860  02BA  1283               	bcf	3,5	;RP0=0, select bank0
  1861  02BB  1303               	bcf	3,6	;RP1=0, select bank0
  1862  02BC  0099               	movwf	25	;volatile
  1863  02BD                     l676:
  1864                           
  1865                           ;lab10canvas.c: 44:      _delay((unsigned long)((5)*(1000000/4000.0)));
  1866  02BD  3069               	movlw	105
  1867  02BE  0099               	movwf	25	;volatile
  1868  02BF                     l678:
  1869                           
  1870                           ;lab10canvas.c: 45:      TXREG = 115;
  1871  02BF  30F9               	movlw	249
  1872  02C0  00F2               	movwf	??_caracteres
  1873  02C1                     u687:
  1874  02C1  2AC2               	nop2
  1875  02C2  0BF2               	decfsz	??_caracteres,f
  1876  02C3  2AC1               	goto	u687
  1877  02C4  2AC5               	nop2
  1878  02C5  2AC6               	nop2
  1879  02C6                     l680:
  1880                           
  1881                           ;lab10canvas.c: 46:      TXREG = 105;
  1882  02C6  3064               	movlw	100
  1883  02C7  1283               	bcf	3,5	;RP0=0, select bank0
  1884  02C8  1303               	bcf	3,6	;RP1=0, select bank0
  1885  02C9  0099               	movwf	25	;volatile
  1886  02CA                     l682:
  1887                           
  1888                           ;lab10canvas.c: 47:      _delay((unsigned long)((5)*(1000000/4000.0)));
  1889  02CA  3061               	movlw	97
  1890  02CB  0099               	movwf	25	;volatile
  1891  02CC                     l684:
  1892                           
  1893                           ;lab10canvas.c: 48:      TXREG = 116;
  1894  02CC  30F9               	movlw	249
  1895  02CD  00F2               	movwf	??_caracteres
  1896  02CE                     u697:
  1897  02CE  2ACF               	nop2
  1898  02CF  0BF2               	decfsz	??_caracteres,f
  1899  02D0  2ACE               	goto	u697
  1900  02D1  2AD2               	nop2
  1901  02D2  2AD3               	nop2
  1902  02D3                     l686:
  1903                           
  1904                           ;lab10canvas.c: 49:      TXREG = 116;
  1905  02D3  3020               	movlw	32
  1906  02D4  1283               	bcf	3,5	;RP0=0, select bank0
  1907  02D5  1303               	bcf	3,6	;RP1=0, select bank0
  1908  02D6  0099               	movwf	25	;volatile
  1909  02D7                     l688:
  1910                           
  1911                           ;lab10canvas.c: 50:      _delay((unsigned long)((5)*(1000000/4000.0)));
  1912  02D7  3073               	movlw	115
  1913  02D8  0099               	movwf	25	;volatile
  1914  02D9                     l690:
  1915                           
  1916                           ;lab10canvas.c: 51:      TXREG = 105;
  1917  02D9  30F9               	movlw	249
  1918  02DA  00F2               	movwf	??_caracteres
  1919  02DB                     u707:
  1920  02DB  2ADC               	nop2
  1921  02DC  0BF2               	decfsz	??_caracteres,f
  1922  02DD  2ADB               	goto	u707
  1923  02DE  2ADF               	nop2
  1924  02DF  2AE0               	nop2
  1925  02E0                     l692:
  1926                           
  1927                           ;lab10canvas.c: 52:      TXREG = 110;
  1928  02E0  3061               	movlw	97
  1929  02E1  1283               	bcf	3,5	;RP0=0, select bank0
  1930  02E2  1303               	bcf	3,6	;RP1=0, select bank0
  1931  02E3  0099               	movwf	25	;volatile
  1932  02E4                     l694:
  1933                           
  1934                           ;lab10canvas.c: 53:      _delay((unsigned long)((5)*(1000000/4000.0)));
  1935  02E4  3062               	movlw	98
  1936  02E5  0099               	movwf	25	;volatile
  1937  02E6                     l696:
  1938                           
  1939                           ;lab10canvas.c: 54:      TXREG = 103;
  1940  02E6  30F9               	movlw	249
  1941  02E7  00F2               	movwf	??_caracteres
  1942  02E8                     u717:
  1943  02E8  2AE9               	nop2
  1944  02E9  0BF2               	decfsz	??_caracteres,f
  1945  02EA  2AE8               	goto	u717
  1946  02EB  2AEC               	nop2
  1947  02EC  2AED               	nop2
  1948  02ED                     l698:
  1949                           
  1950                           ;lab10canvas.c: 55:      TXREG = 102;
  1951  02ED  3065               	movlw	101
  1952  02EE  1283               	bcf	3,5	;RP0=0, select bank0
  1953  02EF  1303               	bcf	3,6	;RP1=0, select bank0
  1954  02F0  0099               	movwf	25	;volatile
  1955  02F1                     l700:
  1956                           
  1957                           ;lab10canvas.c: 56:      _delay((unsigned long)((5)*(1000000/4000.0)));
  1958  02F1  3020               	movlw	32
  1959  02F2  0099               	movwf	25	;volatile
  1960  02F3                     l702:
  1961                           
  1962                           ;lab10canvas.c: 57:      TXREG = 114;
  1963  02F3  30F9               	movlw	249
  1964  02F4  00F2               	movwf	??_caracteres
  1965  02F5                     u727:
  1966  02F5  2AF6               	nop2
  1967  02F6  0BF2               	decfsz	??_caracteres,f
  1968  02F7  2AF5               	goto	u727
  1969  02F8  2AF9               	nop2
  1970  02F9  2AFA               	nop2
  1971  02FA                     l704:
  1972                           
  1973                           ;lab10canvas.c: 58:      TXREG = 111;
  1974  02FA  3061               	movlw	97
  1975  02FB  1283               	bcf	3,5	;RP0=0, select bank0
  1976  02FC  1303               	bcf	3,6	;RP1=0, select bank0
  1977  02FD  0099               	movwf	25	;volatile
  1978  02FE                     l706:
  1979                           
  1980                           ;lab10canvas.c: 59:      _delay((unsigned long)((5)*(1000000/4000.0)));
  1981  02FE  3020               	movlw	32
  1982  02FF  0099               	movwf	25	;volatile
  1983  0300                     l708:
  1984                           
  1985                           ;lab10canvas.c: 60:      TXREG = 103;}
  1986  0300  30F9               	movlw	249
  1987  0301  00F2               	movwf	??_caracteres
  1988  0302                     u737:
  1989  0302  2B03               	nop2
  1990  0303  0BF2               	decfsz	??_caracteres,f
  1991  0304  2B02               	goto	u737
  1992  0305  2B06               	nop2
  1993  0306  2B07               	nop2
  1994  0307                     l710:
  1995                           
  1996                           ;lab10canvas.c: 61: }
  1997  0307  3063               	movlw	99
  1998  0308  1283               	bcf	3,5	;RP0=0, select bank0
  1999  0309  1303               	bcf	3,6	;RP1=0, select bank0
  2000  030A  0099               	movwf	25	;volatile
  2001  030B                     l712:
  2002                           
  2003                           ;lab10canvas.c: 62: void nuevocaracter(void){
  2004  030B  306F               	movlw	111
  2005  030C  0099               	movwf	25	;volatile
  2006  030D                     l714:
  2007                           
  2008                           ;lab10canvas.c: 63:     if (PIR1bits.TXIF)
  2009  030D  30F9               	movlw	249
  2010  030E  00F2               	movwf	??_caracteres
  2011  030F                     u747:
  2012  030F  2B10               	nop2
  2013  0310  0BF2               	decfsz	??_caracteres,f
  2014  0311  2B0F               	goto	u747
  2015  0312  2B13               	nop2
  2016  0313  2B14               	nop2
  2017  0314                     l716:
  2018                           
  2019                           ;lab10canvas.c: 64:     {TXREG = 73;
  2020  0314  306D               	movlw	109
  2021  0315  1283               	bcf	3,5	;RP0=0, select bank0
  2022  0316  1303               	bcf	3,6	;RP1=0, select bank0
  2023  0317  0099               	movwf	25	;volatile
  2024  0318                     l718:
  2025                           
  2026                           ;lab10canvas.c: 65:      TXREG = 110;
  2027  0318  3069               	movlw	105
  2028  0319  0099               	movwf	25	;volatile
  2029  031A                     l720:
  2030                           
  2031                           ;lab10canvas.c: 66:      _delay((unsigned long)((5)*(1000000/4000.0)));
  2032  031A  30F9               	movlw	249
  2033  031B  00F2               	movwf	??_caracteres
  2034  031C                     u757:
  2035  031C  2B1D               	nop2
  2036  031D  0BF2               	decfsz	??_caracteres,f
  2037  031E  2B1C               	goto	u757
  2038  031F  2B20               	nop2
  2039  0320  2B21               	nop2
  2040  0321                     l722:
  2041                           
  2042                           ;lab10canvas.c: 67:      TXREG = 103;
  2043  0321  3064               	movlw	100
  2044  0322  1283               	bcf	3,5	;RP0=0, select bank0
  2045  0323  1303               	bcf	3,6	;RP1=0, select bank0
  2046  0324  0099               	movwf	25	;volatile
  2047  0325                     l724:
  2048                           
  2049                           ;lab10canvas.c: 68:      TXREG = 114;
  2050  0325  3061               	movlw	97
  2051  0326  0099               	movwf	25	;volatile
  2052  0327                     l726:
  2053                           
  2054                           ;lab10canvas.c: 69:      _delay((unsigned long)((5)*(1000000/4000.0)));
  2055  0327  30F9               	movlw	249
  2056  0328  00F2               	movwf	??_caracteres
  2057  0329                     u767:
  2058  0329  2B2A               	nop2
  2059  032A  0BF2               	decfsz	??_caracteres,f
  2060  032B  2B29               	goto	u767
  2061  032C  2B2D               	nop2
  2062  032D  2B2E               	nop2
  2063  032E                     l728:
  2064                           
  2065                           ;lab10canvas.c: 70:      TXREG = 101;
  2066  032E  302E               	movlw	46
  2067  032F  1283               	bcf	3,5	;RP0=0, select bank0
  2068  0330  1303               	bcf	3,6	;RP1=0, select bank0
  2069  0331  0099               	movwf	25	;volatile
  2070  0332                     l730:
  2071                           
  2072                           ;lab10canvas.c: 71:      TXREG = 115;
  2073  0332  300D               	movlw	13
  2074  0333  0099               	movwf	25	;volatile
  2075  0334                     l732:
  2076                           
  2077                           ;lab10canvas.c: 72:      _delay((unsigned long)((5)*(1000000/4000.0)));
  2078  0334  30F9               	movlw	249
  2079  0335  00F2               	movwf	??_caracteres
  2080  0336                     u777:
  2081  0336  2B37               	nop2
  2082  0337  0BF2               	decfsz	??_caracteres,f
  2083  0338  2B36               	goto	u777
  2084  0339  2B3A               	nop2
  2085  033A  2B3B               	nop2
  2086  033B                     l734:
  2087                           
  2088                           ;lab10canvas.c: 73:      TXREG = 101;
  2089  033B  302D               	movlw	45
  2090  033C  1283               	bcf	3,5	;RP0=0, select bank0
  2091  033D  1303               	bcf	3,6	;RP1=0, select bank0
  2092  033E  0099               	movwf	25	;volatile
  2093  033F                     l736:
  2094                           
  2095                           ;lab10canvas.c: 74:      TXREG = 32;
  2096  033F  3061               	movlw	97
  2097  0340  0099               	movwf	25	;volatile
  2098  0341                     l738:
  2099                           
  2100                           ;lab10canvas.c: 75:      _delay((unsigned long)((5)*(1000000/4000.0)));
  2101  0341  30F9               	movlw	249
  2102  0342  00F2               	movwf	??_caracteres
  2103  0343                     u787:
  2104  0343  2B44               	nop2
  2105  0344  0BF2               	decfsz	??_caracteres,f
  2106  0345  2B43               	goto	u787
  2107  0346  2B47               	nop2
  2108  0347  2B48               	nop2
  2109  0348                     l740:
  2110                           
  2111                           ;lab10canvas.c: 76:      TXREG = 110;
  2112  0348  3073               	movlw	115
  2113  0349  1283               	bcf	3,5	;RP0=0, select bank0
  2114  034A  1303               	bcf	3,6	;RP1=0, select bank0
  2115  034B  0099               	movwf	25	;volatile
  2116  034C                     l742:
  2117                           
  2118                           ;lab10canvas.c: 77:      TXREG = 117;
  2119  034C  3069               	movlw	105
  2120  034D  0099               	movwf	25	;volatile
  2121  034E                     l744:
  2122                           
  2123                           ;lab10canvas.c: 78:      _delay((unsigned long)((5)*(1000000/4000.0)));
  2124  034E  30F9               	movlw	249
  2125  034F  00F2               	movwf	??_caracteres
  2126  0350                     u797:
  2127  0350  2B51               	nop2
  2128  0351  0BF2               	decfsz	??_caracteres,f
  2129  0352  2B50               	goto	u797
  2130  0353  2B54               	nop2
  2131  0354  2B55               	nop2
  2132  0355                     l746:
  2133                           
  2134                           ;lab10canvas.c: 79:      TXREG = 101;
  2135  0355  3074               	movlw	116
  2136  0356  1283               	bcf	3,5	;RP0=0, select bank0
  2137  0357  1303               	bcf	3,6	;RP1=0, select bank0
  2138  0358  0099               	movwf	25	;volatile
  2139  0359                     l748:
  2140                           
  2141                           ;lab10canvas.c: 80:      TXREG = 118;
  2142  0359  3074               	movlw	116
  2143  035A  0099               	movwf	25	;volatile
  2144  035B                     l750:
  2145                           
  2146                           ;lab10canvas.c: 81:      _delay((unsigned long)((5)*(1000000/4000.0)));
  2147  035B  30F9               	movlw	249
  2148  035C  00F2               	movwf	??_caracteres
  2149  035D                     u807:
  2150  035D  2B5E               	nop2
  2151  035E  0BF2               	decfsz	??_caracteres,f
  2152  035F  2B5D               	goto	u807
  2153  0360  2B61               	nop2
  2154  0361  2B62               	nop2
  2155  0362                     l752:
  2156                           
  2157                           ;lab10canvas.c: 82:      TXREG = 111;
  2158  0362  3069               	movlw	105
  2159  0363  1283               	bcf	3,5	;RP0=0, select bank0
  2160  0364  1303               	bcf	3,6	;RP1=0, select bank0
  2161  0365  0099               	movwf	25	;volatile
  2162  0366                     l754:
  2163                           
  2164                           ;lab10canvas.c: 83:      TXREG = 32;
  2165  0366  306E               	movlw	110
  2166  0367  0099               	movwf	25	;volatile
  2167  0368                     l756:
  2168                           
  2169                           ;lab10canvas.c: 84:      _delay((unsigned long)((5)*(1000000/4000.0)));
  2170  0368  30F9               	movlw	249
  2171  0369  00F2               	movwf	??_caracteres
  2172  036A                     u817:
  2173  036A  2B6B               	nop2
  2174  036B  0BF2               	decfsz	??_caracteres,f
  2175  036C  2B6A               	goto	u817
  2176  036D  2B6E               	nop2
  2177  036E  2B6F               	nop2
  2178  036F                     l758:
  2179                           
  2180                           ;lab10canvas.c: 85:      TXREG = 99;
  2181  036F  3067               	movlw	103
  2182  0370  1283               	bcf	3,5	;RP0=0, select bank0
  2183  0371  1303               	bcf	3,6	;RP1=0, select bank0
  2184  0372  0099               	movwf	25	;volatile
  2185  0373                     l760:
  2186                           
  2187                           ;lab10canvas.c: 86:      TXREG = 97;
  2188  0373  3066               	movlw	102
  2189  0374  0099               	movwf	25	;volatile
  2190  0375                     l762:
  2191                           
  2192                           ;lab10canvas.c: 87:      _delay((unsigned long)((5)*(1000000/4000.0)));
  2193  0375  30F9               	movlw	249
  2194  0376  00F2               	movwf	??_caracteres
  2195  0377                     u827:
  2196  0377  2B78               	nop2
  2197  0378  0BF2               	decfsz	??_caracteres,f
  2198  0379  2B77               	goto	u827
  2199  037A  2B7B               	nop2
  2200  037B  2B7C               	nop2
  2201  037C                     l764:
  2202                           
  2203                           ;lab10canvas.c: 88:      TXREG = 114;
  2204  037C  3072               	movlw	114
  2205  037D  1283               	bcf	3,5	;RP0=0, select bank0
  2206  037E  1303               	bcf	3,6	;RP1=0, select bank0
  2207  037F  0099               	movwf	25	;volatile
  2208  0380                     l766:
  2209                           
  2210                           ;lab10canvas.c: 89:      TXREG = 97;
  2211  0380  306F               	movlw	111
  2212  0381  0099               	movwf	25	;volatile
  2213  0382                     l768:
  2214                           
  2215                           ;lab10canvas.c: 90:      _delay((unsigned long)((5)*(1000000/4000.0)));
  2216  0382  30F9               	movlw	249
  2217  0383  00F2               	movwf	??_caracteres
  2218  0384                     u837:
  2219  0384  2B85               	nop2
  2220  0385  0BF2               	decfsz	??_caracteres,f
  2221  0386  2B84               	goto	u837
  2222  0387  2B88               	nop2
  2223  0388  2B89               	nop2
  2224  0389                     l770:
  2225                           
  2226                           ;lab10canvas.c: 91:      TXREG = 99;
  2227  0389  3067               	movlw	103
  2228  038A  1283               	bcf	3,5	;RP0=0, select bank0
  2229  038B  1303               	bcf	3,6	;RP1=0, select bank0
  2230  038C  0099               	movwf	25	;volatile
  2231  038D                     l40:
  2232  038D  0008               	return
  2233  038E                     __end_of_caracteres:
  2234                           
  2235                           	psect	text4
  2236  047E                     __ptext4:	
  2237 ;; *************** function _isr *****************
  2238 ;; Defined at:
  2239 ;;		line 282 in file "lab10canvas.c"
  2240 ;; Parameters:    Size  Location     Type
  2241 ;;		None
  2242 ;; Auto vars:     Size  Location     Type
  2243 ;;		None
  2244 ;; Return value:  Size  Location     Type
  2245 ;;                  1    wreg      void 
  2246 ;; Registers used:
  2247 ;;		wreg
  2248 ;; Tracked objects:
  2249 ;;		On entry : 0/0
  2250 ;;		On exit  : 0/0
  2251 ;;		Unchanged: 0/0
  2252 ;; Data sizes:     COMMON   BANK0   BANK1   BANK3   BANK2
  2253 ;;      Params:         0       0       0       0       0
  2254 ;;      Locals:         0       0       0       0       0
  2255 ;;      Temps:          2       0       0       0       0
  2256 ;;      Totals:         2       0       0       0       0
  2257 ;;Total ram usage:        2 bytes
  2258 ;; Hardware stack levels used:    1
  2259 ;; This function calls:
  2260 ;;		Nothing
  2261 ;; This function is called by:
  2262 ;;		Interrupt level 1
  2263 ;; This function uses a non-reentrant model
  2264 ;;
  2265                           
  2266                           
  2267                           ;psect for function _isr
  2268  047E                     _isr:
  2269  047E                     i1l780:
  2270                           
  2271                           ;lab10canvas.c: 284:     PIR1bits.ADIF = 0;
  2272  047E  1283               	bcf	3,5	;RP0=0, select bank0
  2273  047F  1303               	bcf	3,6	;RP1=0, select bank0
  2274  0480  080C               	movf	12,w	;volatile
  2275  0481                     i1l54:
  2276  0481  0871               	movf	??_isr+1,w
  2277  0482  008A               	movwf	10
  2278  0483  0E70               	swapf	??_isr,w
  2279  0484  0083               	movwf	3
  2280  0485  0EFE               	swapf	btemp,f
  2281  0486  0E7E               	swapf	btemp,w
  2282  0487  0009               	retfie
  2283  0488                     __end_of_isr:
  2284  007E                     btemp	set	126	;btemp
  2285  007E                     wtemp0	set	126
  2286                           
  2287                           	psect	intentry
  2288  0004                     __pintentry:	
  2289                           ;incstack = 0
  2290                           ; Regs used in _isr: [wreg]
  2291                           
  2292  0004                     interrupt_function:
  2293  007E                     saved_w	set	btemp
  2294  0004  00FE               	movwf	btemp
  2295  0005  0E03               	swapf	3,w
  2296  0006  00F0               	movwf	??_isr
  2297  0007  080A               	movf	10,w
  2298  0008  00F1               	movwf	??_isr+1
  2299  0009  120A  118A  2C7E   	ljmp	_isr
  2300                           
  2301                           	psect	config
  2302                           
  2303                           ;Config register CONFIG1 @ 0x2007
  2304                           ;	Oscillator Selection bits
  2305                           ;	FOSC = INTRC_NOCLKOUT, INTOSCIO oscillator: I/O function on RA6/OSC2/CLKOUT pin, I/O f
      +                          unction on RA7/OSC1/CLKIN
  2306                           ;	Watchdog Timer Enable bit
  2307                           ;	WDTE = OFF, WDT disabled and can be enabled by SWDTEN bit of the WDTCON register
  2308                           ;	Power-up Timer Enable bit
  2309                           ;	PWRTE = ON, PWRT enabled
  2310                           ;	RE3/MCLR pin function select bit
  2311                           ;	MCLRE = OFF, RE3/MCLR pin function is digital input, MCLR internally tied to VDD
  2312                           ;	Code Protection bit
  2313                           ;	CP = OFF, Program memory code protection is disabled
  2314                           ;	Data Code Protection bit
  2315                           ;	CPD = OFF, Data memory code protection is disabled
  2316                           ;	Brown Out Reset Selection bits
  2317                           ;	BOREN = OFF, BOR disabled
  2318                           ;	Internal External Switchover bit
  2319                           ;	IESO = OFF, Internal/External Switchover mode is disabled
  2320                           ;	Fail-Safe Clock Monitor Enabled bit
  2321                           ;	FCMEN = OFF, Fail-Safe Clock Monitor is disabled
  2322                           ;	Low Voltage Programming Enable bit
  2323                           ;	LVP = ON, RB3/PGM pin has PGM function, low voltage programming enabled
  2324                           ;	In-Circuit Debugger Mode bit
  2325                           ;	DEBUG = 0x1, unprogrammed default
  2326  2007                     	org	8199
  2327  2007  30C4               	dw	12484
  2328                           
  2329                           ;Config register CONFIG2 @ 0x2008
  2330                           ;	Brown-out Reset Selection bit
  2331                           ;	BOR4V = BOR40V, Brown-out Reset set to 4.0V
  2332                           ;	Flash Program Memory Self Write Enable bits
  2333                           ;	WRT = OFF, Write protection off
  2334  2008                     	org	8200
  2335  2008  3FFF               	dw	16383

Data Sizes:
    Strings     0
    Constant    0
    Data        0
    BSS         1
    Persistent  0
    Stack       0

Auto Spaces:
    Space          Size  Autos    Used
    COMMON           14      4       5
    BANK0            80      0       0
    BANK1            80      0       0
    BANK3            96      0       0
    BANK2            96      0       0

Pointer List with Targets:

    None.

Critical Paths under _main in COMMON

    _main->_caracteres
    _main->_menu
    _main->_nuevocaracter

Critical Paths under _isr in COMMON

    None.

Critical Paths under _main in BANK0

    None.

Critical Paths under _isr in BANK0

    None.

Critical Paths under _main in BANK1

    None.

Critical Paths under _isr in BANK1

    None.

Critical Paths under _main in BANK3

    None.

Critical Paths under _isr in BANK3

    None.

Critical Paths under _main in BANK2

    None.

Critical Paths under _isr in BANK2

    None.

Call Graph Tables:

 ---------------------------------------------------------------------------------
 (Depth) Function   	        Calls       Base Space   Used Autos Params    Refs
 ---------------------------------------------------------------------------------
 (0) _main                                                 1     1      0       0
                                              3 COMMON     1     1      0
                         _caracteres
                               _menu
                      _nuevocaracter
 ---------------------------------------------------------------------------------
 (1) _nuevocaracter                                        1     1      0       0
                                              2 COMMON     1     1      0
 ---------------------------------------------------------------------------------
 (1) _menu                                                 1     1      0       0
                                              2 COMMON     1     1      0
 ---------------------------------------------------------------------------------
 (1) _caracteres                                           1     1      0       0
                                              2 COMMON     1     1      0
 ---------------------------------------------------------------------------------
 Estimated maximum stack depth 1
 ---------------------------------------------------------------------------------
 (Depth) Function   	        Calls       Base Space   Used Autos Params    Refs
 ---------------------------------------------------------------------------------
 (2) _isr                                                  2     2      0       0
                                              0 COMMON     2     2      0
 ---------------------------------------------------------------------------------
 Estimated maximum stack depth 2
 ---------------------------------------------------------------------------------

 Call Graph Graphs:

 _main (ROOT)
   _caracteres
   _menu
   _nuevocaracter

 _isr (ROOT)

 Address spaces:
Name               Size   Autos  Total    Cost      Usage
BITCOMMON            E      0       0       0        0.0%
EEDATA             100      0       0       0        0.0%
NULL                 0      0       0       0        0.0%
CODE                 0      0       0       0        0.0%
COMMON               E      4       5       1       35.7%
BITSFR0              0      0       0       1        0.0%
SFR0                 0      0       0       1        0.0%
BITSFR1              0      0       0       2        0.0%
SFR1                 0      0       0       2        0.0%
STACK                0      0       0       2        0.0%
ABS                  0      0       5       3        0.0%
BITBANK0            50      0       0       4        0.0%
BITSFR3              0      0       0       4        0.0%
SFR3                 0      0       0       4        0.0%
BANK0               50      0       0       5        0.0%
BITSFR2              0      0       0       5        0.0%
SFR2                 0      0       0       5        0.0%
BITBANK1            50      0       0       6        0.0%
BANK1               50      0       0       7        0.0%
BITBANK3            60      0       0       8        0.0%
BANK3               60      0       0       9        0.0%
BITBANK2            60      0       0      10        0.0%
BANK2               60      0       0      11        0.0%
DATA                 0      0       5      12        0.0%


Microchip Technology PIC Macro Assembler V2.31 build 20201012212115 
Symbol Table                                                                                   Tue May 04 01:03:05 2021

                     l40 038D                       l44 0427                       l60 047A  
                     l48 028E                       l59 047A                       u10 0295  
                     u11 0294                       u20 0394                       u21 0393  
                     u30 001A                       u31 0019                       u47 0464  
                     u57 0470                       u67 039A                       u77 03A7  
                     u87 03B4                       u97 03C1                      l700 02F1  
                    l710 0307                      l702 02F3                      l720 031A  
                    l712 030B                      l704 02FA                      l800 043E  
                    l730 0332                      l722 0321                      l714 030D  
                    l706 02FE                      l810 044A                      l802 043F  
                    l740 0348                      l732 0334                      l724 0325  
                    l716 0314                      l708 0300                      l660 0298  
                    l820 0455                      l812 044B                      l804 0442  
                    l750 035B                      l742 034C                      l734 033B  
                    l726 0327                      l718 0318                      l670 02B0  
                    l662 029F                      l654 028F                      l830 0462  
                    l822 0458                      l814 044C                      l806 0446  
                    l760 0373                      l752 0362                      l744 034E  
                    l736 033F                      l728 032E                      l680 02C6  
                    l672 02B2                      l664 02A3                      l656 0295  
                    l832 0469                      l824 045B                      l816 044F  
                    l808 0447                      l770 0389                      l762 0375  
                    l754 0366                      l746 0355                      l738 0341  
                    l690 02D9                      l682 02CA                      l674 02B9  
                    l666 02A5                      l658 0296                      l834 046E  
                    l826 045C                      l818 0452                      l764 037C  
                    l756 0368                      l748 0359                      l692 02E0  
                    l684 02CC                      l676 02BD                      l668 02AC  
                    l772 038E                      l836 0475                      l828 045D  
                    l766 0380                      l758 036F                      l694 02E4  
                    l686 02D3                      l678 02BF                      l774 0394  
                    l790 0433                      l782 0428                      l768 0382  
                    l696 02E6                      l688 02D7                      l776 0014  
                    l792 0436                      l784 042E                      l698 02ED  
                    l778 001A                      l794 0437                      l786 042F  
                    l796 043A                      l788 0432                      l798 043B  
                    u107 03CE                      u117 03DB                      u207 0047  
                    u127 03E8                      u217 0054                      u137 03F5  
                    u307 00C9                      u227 0061                      u147 0402  
                    u317 00D6                      u237 006E                      u157 040F  
                    u407 014B                      u327 00E3                      u247 007B  
                    u167 041C                      u417 0158                      u337 00F0  
                    u257 0088                      u177 0020                      u507 01CD  
                    u427 0165                      u347 00FD                      u267 0095  
                    u187 002D                      u517 01DA                      u437 0172  
                    u357 010A                      u277 00A2                      u197 003A  
                    u607 024F                      u527 01E7                      u447 017F  
                    u367 0117                      u287 00AF                      u617 025C  
                    u537 01F4                      u457 018C                      u377 0124  
                    u297 00BC                      u707 02DB                      u627 0269  
                    u547 0201                      u467 0199                      u387 0131  
                    u717 02E8                      u637 0276                      u557 020E  
                    u477 01A6                      u397 013E                      u807 035D  
                    u727 02F5                      u647 0283                      u567 021B  
                    u487 01B3                      u817 036A                      u737 0302  
                    u657 029A                      u577 0228                      u497 01C0  
                    u827 0377                      u747 030F                      u667 02A7  
                    u587 0235                      u837 0384                      u757 031C  
                    u677 02B4                      u597 0242                      u767 0329  
                    u687 02C1                      u777 0336                      u697 02CE  
                    u787 0343                      u797 0350                      _isr 047E  
                   ?_isr 0070                     i1l54 0481                     _main 0428  
                   _menu 0014                     btemp 007E                     start 000C  
        ??_nuevocaracter 0072                    ??_isr 0070                    ?_main 0070  
                  ?_menu 0070                    _ANSEL 0188                    i1l780 047E  
                  _SPBRG 0099                    _PORTA 0005                    _PORTB 0006  
                  _TRISA 0085                    _TRISB 0086                    _TXREG 0019  
                  pclath 000A                    status 0003                    wtemp0 007E  
        __initialization 000F             __end_of_main 047E             __end_of_menu 028F  
                 ??_main 0073                   ??_menu 0072                   _ANSELH 0189  
                 _SPBRGH 009A                   saved_w 007E  __end_of__initialization 0010  
         __pcstackCOMMON 0070               _caracteres 028F               __pmaintext 0428  
             __pintentry 0004    __end_of_nuevocaracter 0428                  __ptext1 038E  
                __ptext2 0014                  __ptext3 028F                  __ptext4 047E  
           __size_of_isr 000A     end_of_initialization 0010              ?_caracteres 0070  
              _RCSTAbits 0018                _TXSTAbits 0098      __size_of_caracteres 00FF  
            _BAUDCTLbits 0187      start_initialization 000F              __end_of_isr 0488  
            __pbssCOMMON 0074                ___latbits 0002             ??_caracteres 0072  
      interrupt_function 0004                 _PIE1bits 008C                 _PIR1bits 000C  
     __end_of_caracteres 038E   __size_of_nuevocaracter 009A                 _datomenu 0074  
          __size_of_main 0056            __size_of_menu 027B            _nuevocaracter 038E  
             _INTCONbits 000B                 intlevel1 0000               _OSCCONbits 008F  
         ?_nuevocaracter 0070  
