

Microchip MPLAB XC8 Assembler V2.31 build 20201012212115 
                                                                                               Thu May 06 16:51:36 2021

Microchip MPLAB XC8 C Compiler v2.31 (Free license) build 20201012212115 Og1 
     1                           	processor	16F887
     2                           	pagewidth 120
     3                           	opt	flic
     4                           	psect	cinit,global,class=CODE,merge=1,delta=2
     5                           	psect	bssCOMMON,global,class=COMMON,space=1,delta=1,noexec
     6                           	psect	cstackCOMMON,global,class=COMMON,space=1,delta=1,noexec
     7                           	psect	maintext,global,class=CODE,split=1,delta=2
     8                           	psect	text1,local,class=CODE,merge=1,delta=2
     9                           	psect	text2,local,class=CODE,merge=1,delta=2
    10                           	psect	intentry,global,class=CODE,delta=2
    11                           	psect	text3,local,class=CODE,merge=1,delta=2
    12                           	psect	text4,local,class=CODE,merge=1,delta=2
    13                           	psect	text5,local,class=CODE,merge=1,delta=2
    14                           	psect	config,global,abs,ovrld,class=CONFIG,space=4,delta=2,noexec
    15                           	dabs	1,0x7E,2
    16  0000                     
    17                           ; Version 2.20
    18                           ; Generated 12/02/2020 GMT
    19                           ; 
    20                           ; Copyright © 2020, Microchip Technology Inc. and its subsidiaries ("Microchip")
    21                           ; All rights reserved.
    22                           ; 
    23                           ; This software is developed by Microchip Technology Inc. and its subsidiaries ("Microch
      +                          ip").
    24                           ; 
    25                           ; Redistribution and use in source and binary forms, with or without modification, are
    26                           ; permitted provided that the following conditions are met:
    27                           ; 
    28                           ;     1. Redistributions of source code must retain the above copyright notice, this lis
      +                          t of
    29                           ;        conditions and the following disclaimer.
    30                           ; 
    31                           ;     2. Redistributions in binary form must reproduce the above copyright notice, this 
      +                          list
    32                           ;        of conditions and the following disclaimer in the documentation and/or other
    33                           ;        materials provided with the distribution.
    34                           ; 
    35                           ;     3. Microchip's name may not be used to endorse or promote products derived from th
      +                          is
    36                           ;        software without specific prior written permission.
    37                           ; 
    38                           ; THIS SOFTWARE IS PROVIDED BY MICROCHIP "AS IS" AND ANY EXPRESS OR IMPLIED WARRANTIES,
    39                           ; INCLUDING, BUT NOT LIMITED TO, THE IMPLIED WARRANTIES OF MERCHANTABILITY AND FITNESS F
      +                          OR
    40                           ; PURPOSE ARE DISCLAIMED.  IN NO EVENT SHALL MICROCHIP BE LIABLE FOR ANY DIRECT, INDIREC
      +                          T,
    41                           ; INCIDENTAL, SPECIAL, EXEMPLARY, OR CONSEQUENTIAL DAMAGES (INCLUDING BUT NOT LIMITED TO
    42                           ; PROCUREMENT OF SUBSTITUTE GOODS OR SERVICES; LOSS OF USE, DATA OR PROFITS; OR BUSINESS
    43                           ; INTERRUPTION) HOWSOEVER CAUSED AND ON ANY THEORY OF LIABILITY, WHETHER IN CONTRACT, ST
      +                          RICT
    44                           ; LIABILITY, OR TORT (INCLUDING NEGLIGENCE OR OTHERWISE) ARISING IN ANY WAY OUT OF THE U
      +                          SE OF
    45                           ; THIS SOFTWARE, EVEN IF ADVISED OF THE POSSIBILITY OF SUCH DAMAGE.
    46                           ; 
    47                           ; 
    48                           ; Code-generator required, PIC16F887 Definitions
    49                           ; 
    50                           ; SFR Addresses
    51  0000                     	;# 
    52  0001                     	;# 
    53  0002                     	;# 
    54  0003                     	;# 
    55  0004                     	;# 
    56  0005                     	;# 
    57  0006                     	;# 
    58  0007                     	;# 
    59  0008                     	;# 
    60  0009                     	;# 
    61  000A                     	;# 
    62  000B                     	;# 
    63  000C                     	;# 
    64  000D                     	;# 
    65  000E                     	;# 
    66  000E                     	;# 
    67  000F                     	;# 
    68  0010                     	;# 
    69  0011                     	;# 
    70  0012                     	;# 
    71  0013                     	;# 
    72  0014                     	;# 
    73  0015                     	;# 
    74  0015                     	;# 
    75  0016                     	;# 
    76  0017                     	;# 
    77  0018                     	;# 
    78  0019                     	;# 
    79  001A                     	;# 
    80  001B                     	;# 
    81  001B                     	;# 
    82  001C                     	;# 
    83  001D                     	;# 
    84  001E                     	;# 
    85  001F                     	;# 
    86  0081                     	;# 
    87  0085                     	;# 
    88  0086                     	;# 
    89  0087                     	;# 
    90  0088                     	;# 
    91  0089                     	;# 
    92  008C                     	;# 
    93  008D                     	;# 
    94  008E                     	;# 
    95  008F                     	;# 
    96  0090                     	;# 
    97  0091                     	;# 
    98  0092                     	;# 
    99  0093                     	;# 
   100  0093                     	;# 
   101  0093                     	;# 
   102  0094                     	;# 
   103  0095                     	;# 
   104  0096                     	;# 
   105  0097                     	;# 
   106  0098                     	;# 
   107  0099                     	;# 
   108  009A                     	;# 
   109  009B                     	;# 
   110  009C                     	;# 
   111  009D                     	;# 
   112  009E                     	;# 
   113  009F                     	;# 
   114  0105                     	;# 
   115  0107                     	;# 
   116  0108                     	;# 
   117  0109                     	;# 
   118  010C                     	;# 
   119  010C                     	;# 
   120  010D                     	;# 
   121  010E                     	;# 
   122  010F                     	;# 
   123  0185                     	;# 
   124  0187                     	;# 
   125  0188                     	;# 
   126  0189                     	;# 
   127  018C                     	;# 
   128  018D                     	;# 
   129  0000                     	;# 
   130  0001                     	;# 
   131  0002                     	;# 
   132  0003                     	;# 
   133  0004                     	;# 
   134  0005                     	;# 
   135  0006                     	;# 
   136  0007                     	;# 
   137  0008                     	;# 
   138  0009                     	;# 
   139  000A                     	;# 
   140  000B                     	;# 
   141  000C                     	;# 
   142  000D                     	;# 
   143  000E                     	;# 
   144  000E                     	;# 
   145  000F                     	;# 
   146  0010                     	;# 
   147  0011                     	;# 
   148  0012                     	;# 
   149  0013                     	;# 
   150  0014                     	;# 
   151  0015                     	;# 
   152  0015                     	;# 
   153  0016                     	;# 
   154  0017                     	;# 
   155  0018                     	;# 
   156  0019                     	;# 
   157  001A                     	;# 
   158  001B                     	;# 
   159  001B                     	;# 
   160  001C                     	;# 
   161  001D                     	;# 
   162  001E                     	;# 
   163  001F                     	;# 
   164  0081                     	;# 
   165  0085                     	;# 
   166  0086                     	;# 
   167  0087                     	;# 
   168  0088                     	;# 
   169  0089                     	;# 
   170  008C                     	;# 
   171  008D                     	;# 
   172  008E                     	;# 
   173  008F                     	;# 
   174  0090                     	;# 
   175  0091                     	;# 
   176  0092                     	;# 
   177  0093                     	;# 
   178  0093                     	;# 
   179  0093                     	;# 
   180  0094                     	;# 
   181  0095                     	;# 
   182  0096                     	;# 
   183  0097                     	;# 
   184  0098                     	;# 
   185  0099                     	;# 
   186  009A                     	;# 
   187  009B                     	;# 
   188  009C                     	;# 
   189  009D                     	;# 
   190  009E                     	;# 
   191  009F                     	;# 
   192  0105                     	;# 
   193  0107                     	;# 
   194  0108                     	;# 
   195  0109                     	;# 
   196  010C                     	;# 
   197  010C                     	;# 
   198  010D                     	;# 
   199  010E                     	;# 
   200  010F                     	;# 
   201  0185                     	;# 
   202  0187                     	;# 
   203  0188                     	;# 
   204  0189                     	;# 
   205  018C                     	;# 
   206  018D                     	;# 
   207  000B                     _INTCONbits	set	11
   208  0018                     _RCSTAbits	set	24
   209  0006                     _PORTB	set	6
   210  001A                     _RCREG	set	26
   211  0005                     _PORTA	set	5
   212  0019                     _TXREG	set	25
   213  000C                     _PIR1bits	set	12
   214  008C                     _PIE1bits	set	140
   215  009A                     _SPBRGH	set	154
   216  0099                     _SPBRG	set	153
   217  0098                     _TXSTAbits	set	152
   218  0086                     _TRISB	set	134
   219  0085                     _TRISA	set	133
   220  008F                     _OSCCONbits	set	143
   221  0187                     _BAUDCTLbits	set	391
   222  0188                     _ANSEL	set	392
   223  0189                     _ANSELH	set	393
   224                           
   225                           	psect	cinit
   226  0011                     start_initialization:	
   227                           ; #config settings
   228                           
   229  0011                     __initialization:
   230                           
   231                           ; Clear objects allocated to COMMON
   232  0011  01F8               	clrf	__pbssCOMMON& (0+127)
   233  0012                     end_of_initialization:	
   234                           ;End of C runtime variable initialization code
   235                           
   236  0012                     __end_of__initialization:
   237  0012  0183               	clrf	3
   238  0013  120A  118A  2F6C   	ljmp	_main	;jump to C main() function
   239                           
   240                           	psect	bssCOMMON
   241  0078                     __pbssCOMMON:
   242  0078                     _centinela:
   243  0078                     	ds	1
   244                           
   245                           	psect	cstackCOMMON
   246  0070                     __pcstackCOMMON:
   247  0070                     ?_caracteres:
   248  0070                     ??_caracteres:	
   249                           ; 1 bytes @ 0x0
   250                           
   251  0070                     ?_nuevocaracter:	
   252                           ; 1 bytes @ 0x0
   253                           
   254  0070                     ??_nuevocaracter:	
   255                           ; 1 bytes @ 0x0
   256                           
   257  0070                     ?_menu:	
   258                           ; 1 bytes @ 0x0
   259                           
   260  0070                     ?_isr:	
   261                           ; 1 bytes @ 0x0
   262                           
   263  0070                     ?_main:	
   264                           ; 1 bytes @ 0x0
   265                           
   266  0070                     ?i1_menu:	
   267                           ; 1 bytes @ 0x0
   268                           
   269  0070                     ??i1_menu:	
   270                           ; 1 bytes @ 0x0
   271                           
   272                           
   273                           ; 1 bytes @ 0x0
   274  0070                     	ds	1
   275  0071                     ??_isr:
   276                           
   277                           ; 1 bytes @ 0x1
   278  0071                     	ds	5
   279  0076                     ??_menu:
   280                           
   281                           ; 1 bytes @ 0x6
   282  0076                     	ds	1
   283  0077                     ??_main:
   284                           
   285                           ; 1 bytes @ 0x7
   286  0077                     	ds	1
   287                           
   288                           	psect	maintext
   289  076C                     __pmaintext:	
   290 ;;
   291 ;;Main: autosize = 0, tempsize = 1, incstack = 0, save=0
   292 ;;
   293 ;; *************** function _main *****************
   294 ;; Defined at:
   295 ;;		line 343 in file "lab10canvas.c"
   296 ;; Parameters:    Size  Location     Type
   297 ;;		None
   298 ;; Auto vars:     Size  Location     Type
   299 ;;		None
   300 ;; Return value:  Size  Location     Type
   301 ;;                  1    wreg      void 
   302 ;; Registers used:
   303 ;;		wreg, status,2, status,0, pclath, cstack
   304 ;; Tracked objects:
   305 ;;		On entry : B00/0
   306 ;;		On exit  : 0/0
   307 ;;		Unchanged: 0/0
   308 ;; Data sizes:     COMMON   BANK0   BANK1   BANK3   BANK2
   309 ;;      Params:         0       0       0       0       0
   310 ;;      Locals:         0       0       0       0       0
   311 ;;      Temps:          1       0       0       0       0
   312 ;;      Totals:         1       0       0       0       0
   313 ;;Total ram usage:        1 bytes
   314 ;; Hardware stack levels required when called:    3
   315 ;; This function calls:
   316 ;;		_menu
   317 ;; This function is called by:
   318 ;;		Startup code after reset
   319 ;; This function uses a non-reentrant model
   320 ;;
   321                           
   322                           
   323                           ;psect for function _main
   324  076C                     _main:
   325  076C                     l868:	
   326                           ;incstack = 0
   327                           ; Regs used in _main: [wreg+status,2+status,0+pclath+cstack]
   328                           
   329  076C  1683               	bsf	3,5	;RP0=1, select bank1
   330  076D  1303               	bcf	3,6	;RP1=0, select bank1
   331  076E  080F               	movf	15,w	;volatile
   332  076F  398F               	andlw	-113
   333  0770  3840               	iorlw	64
   334  0771  008F               	movwf	15	;volatile
   335  0772                     l870:
   336  0772  140F               	bsf	15,0	;volatile
   337  0773                     l872:
   338  0773  1683               	bsf	3,5	;RP0=1, select bank3
   339  0774  1703               	bsf	3,6	;RP1=1, select bank3
   340  0775  0189               	clrf	9	;volatile
   341  0776                     l874:
   342  0776  0188               	clrf	8	;volatile
   343  0777                     l876:
   344  0777  1683               	bsf	3,5	;RP0=1, select bank1
   345  0778  1303               	bcf	3,6	;RP1=0, select bank1
   346  0779  0185               	clrf	5	;volatile
   347  077A                     l878:
   348  077A  0186               	clrf	6	;volatile
   349  077B                     l880:
   350  077B  1283               	bcf	3,5	;RP0=0, select bank0
   351  077C  1303               	bcf	3,6	;RP1=0, select bank0
   352  077D  0185               	clrf	5	;volatile
   353  077E                     l882:
   354  077E  0186               	clrf	6	;volatile
   355  077F                     l884:
   356  077F  1683               	bsf	3,5	;RP0=1, select bank1
   357  0780  1303               	bcf	3,6	;RP1=0, select bank1
   358  0781  1218               	bcf	24,4	;volatile
   359  0782                     l886:
   360  0782  1518               	bsf	24,2	;volatile
   361  0783                     l888:
   362  0783  1683               	bsf	3,5	;RP0=1, select bank3
   363  0784  1703               	bsf	3,6	;RP1=1, select bank3
   364  0785  1587               	bsf	7,3	;volatile
   365  0786                     l890:
   366  0786  3019               	movlw	25
   367  0787  1683               	bsf	3,5	;RP0=1, select bank1
   368  0788  1303               	bcf	3,6	;RP1=0, select bank1
   369  0789  0099               	movwf	25	;volatile
   370  078A                     l892:
   371  078A  019A               	clrf	26	;volatile
   372  078B                     l894:
   373  078B  1283               	bcf	3,5	;RP0=0, select bank0
   374  078C  1303               	bcf	3,6	;RP1=0, select bank0
   375  078D  1798               	bsf	24,7	;volatile
   376  078E                     l896:
   377  078E  1318               	bcf	24,6	;volatile
   378  078F                     l898:
   379  078F  1618               	bsf	24,4	;volatile
   380  0790                     l900:
   381  0790  1683               	bsf	3,5	;RP0=1, select bank1
   382  0791  1303               	bcf	3,6	;RP1=0, select bank1
   383  0792  1698               	bsf	24,5	;volatile
   384  0793                     l902:
   385  0793  1283               	bcf	3,5	;RP0=0, select bank0
   386  0794  1303               	bcf	3,6	;RP1=0, select bank0
   387  0795  128C               	bcf	12,5	;volatile
   388  0796                     l904:
   389  0796  1683               	bsf	3,5	;RP0=1, select bank1
   390  0797  1303               	bcf	3,6	;RP1=0, select bank1
   391  0798  168C               	bsf	12,5	;volatile
   392  0799                     l906:
   393  0799  1283               	bcf	3,5	;RP0=0, select bank0
   394  079A  1303               	bcf	3,6	;RP1=0, select bank0
   395  079B  130C               	bcf	12,6	;volatile
   396  079C                     l908:
   397  079C  1683               	bsf	3,5	;RP0=1, select bank1
   398  079D  1303               	bcf	3,6	;RP1=0, select bank1
   399  079E  170C               	bsf	12,6	;volatile
   400  079F                     l910:
   401  079F  170B               	bsf	11,6	;volatile
   402  07A0                     l912:
   403  07A0  178B               	bsf	11,7	;volatile
   404  07A1                     l914:
   405  07A1  120A  118A  2016  120A  118A  	fcall	_menu
   406  07A6                     l916:
   407  07A6  30F9               	movlw	249
   408  07A7  00F7               	movwf	??_main
   409  07A8                     u157:
   410  07A8  2FA9               	nop2
   411  07A9  0BF7               	decfsz	??_main,f
   412  07AA  2FA8               	goto	u157
   413  07AB  2FAC               	nop2
   414  07AC  2FAD               	nop2
   415  07AD                     l77:
   416  07AD                     l78:
   417  07AD  2FAD               	goto	l77
   418  07AE  120A  118A  280E   	ljmp	start
   419  07B1                     __end_of_main:
   420                           
   421                           	psect	text1
   422  0016                     __ptext1:	
   423 ;; *************** function _menu *****************
   424 ;; Defined at:
   425 ;;		line 132 in file "lab10canvas.c"
   426 ;; Parameters:    Size  Location     Type
   427 ;;		None
   428 ;; Auto vars:     Size  Location     Type
   429 ;;		None
   430 ;; Return value:  Size  Location     Type
   431 ;;                  1    wreg      void 
   432 ;; Registers used:
   433 ;;		wreg
   434 ;; Tracked objects:
   435 ;;		On entry : 0/0
   436 ;;		On exit  : 0/0
   437 ;;		Unchanged: 0/0
   438 ;; Data sizes:     COMMON   BANK0   BANK1   BANK3   BANK2
   439 ;;      Params:         0       0       0       0       0
   440 ;;      Locals:         0       0       0       0       0
   441 ;;      Temps:          1       0       0       0       0
   442 ;;      Totals:         1       0       0       0       0
   443 ;;Total ram usage:        1 bytes
   444 ;; Hardware stack levels used:    1
   445 ;; Hardware stack levels required when called:    2
   446 ;; This function calls:
   447 ;;		Nothing
   448 ;; This function is called by:
   449 ;;		_main
   450 ;; This function uses a non-reentrant model
   451 ;;
   452                           
   453                           
   454                           ;psect for function _menu
   455  0016                     _menu:
   456  0016                     l794:	
   457                           ;incstack = 0
   458                           ; Regs used in _menu: [wreg]
   459                           
   460                           
   461                           ;lab10canvas.c: 133:      TXREG = 99;
   462  0016  1283               	bcf	3,5	;RP0=0, select bank0
   463  0017  1303               	bcf	3,6	;RP1=0, select bank0
   464  0018  1E0C               	btfss	12,4	;volatile
   465  0019  281B               	goto	u31
   466  001A  281C               	goto	u30
   467  001B                     u31:
   468  001B  2A90               	goto	l50
   469  001C                     u30:
   470  001C                     l796:
   471                           
   472                           ;lab10canvas.c: 134:      TXREG = 117;
   473  001C  3051               	movlw	81
   474  001D  0099               	movwf	25	;volatile
   475                           
   476                           ;lab10canvas.c: 135:      _delay((unsigned long)((5)*(1000000/4000.0)));
   477  001E  3075               	movlw	117
   478  001F  0099               	movwf	25	;volatile
   479                           
   480                           ;lab10canvas.c: 136:      TXREG = 116;
   481  0020  30F9               	movlw	249
   482  0021  00F6               	movwf	??_menu
   483  0022                     u167:
   484  0022  2823               	nop2
   485  0023  0BF6               	decfsz	??_menu,f
   486  0024  2822               	goto	u167
   487  0025  2826               	nop2
   488  0026  2827               	nop2
   489                           
   490                           ;lab10canvas.c: 137:      TXREG = 97;
   491  0027  3065               	movlw	101
   492  0028  1283               	bcf	3,5	;RP0=0, select bank0
   493  0029  1303               	bcf	3,6	;RP1=0, select bank0
   494  002A  0099               	movwf	25	;volatile
   495                           
   496                           ;lab10canvas.c: 138:      _delay((unsigned long)((5)*(1000000/4000.0)));
   497  002B  3020               	movlw	32
   498  002C  0099               	movwf	25	;volatile
   499                           
   500                           ;lab10canvas.c: 139:      TXREG = 114;
   501  002D  30F9               	movlw	249
   502  002E  00F6               	movwf	??_menu
   503  002F                     u177:
   504  002F  2830               	nop2
   505  0030  0BF6               	decfsz	??_menu,f
   506  0031  282F               	goto	u177
   507  0032  2833               	nop2
   508  0033  2834               	nop2
   509                           
   510                           ;lab10canvas.c: 140:      TXREG = 63;
   511  0034  3061               	movlw	97
   512  0035  1283               	bcf	3,5	;RP0=0, select bank0
   513  0036  1303               	bcf	3,6	;RP1=0, select bank0
   514  0037  0099               	movwf	25	;volatile
   515                           
   516                           ;lab10canvas.c: 141:      _delay((unsigned long)((5)*(1000000/4000.0)));
   517  0038  3063               	movlw	99
   518  0039  0099               	movwf	25	;volatile
   519                           
   520                           ;lab10canvas.c: 142:      TXREG = 13;
   521  003A  30F9               	movlw	249
   522  003B  00F6               	movwf	??_menu
   523  003C                     u187:
   524  003C  283D               	nop2
   525  003D  0BF6               	decfsz	??_menu,f
   526  003E  283C               	goto	u187
   527  003F  2840               	nop2
   528  0040  2841               	nop2
   529                           
   530                           ;lab10canvas.c: 143:      TXREG = 40;
   531  0041  3063               	movlw	99
   532  0042  1283               	bcf	3,5	;RP0=0, select bank0
   533  0043  1303               	bcf	3,6	;RP1=0, select bank0
   534  0044  0099               	movwf	25	;volatile
   535                           
   536                           ;lab10canvas.c: 144:      _delay((unsigned long)((5)*(1000000/4000.0)));
   537  0045  3069               	movlw	105
   538  0046  0099               	movwf	25	;volatile
   539                           
   540                           ;lab10canvas.c: 145:      TXREG = 49;
   541  0047  30F9               	movlw	249
   542  0048  00F6               	movwf	??_menu
   543  0049                     u197:
   544  0049  284A               	nop2
   545  004A  0BF6               	decfsz	??_menu,f
   546  004B  2849               	goto	u197
   547  004C  284D               	nop2
   548  004D  284E               	nop2
   549                           
   550                           ;lab10canvas.c: 146:      TXREG = 41;
   551  004E  306F               	movlw	111
   552  004F  1283               	bcf	3,5	;RP0=0, select bank0
   553  0050  1303               	bcf	3,6	;RP1=0, select bank0
   554  0051  0099               	movwf	25	;volatile
   555                           
   556                           ;lab10canvas.c: 147:      _delay((unsigned long)((5)*(1000000/4000.0)));
   557  0052  306E               	movlw	110
   558  0053  0099               	movwf	25	;volatile
   559                           
   560                           ;lab10canvas.c: 148:      TXREG = 32;
   561  0054  30F9               	movlw	249
   562  0055  00F6               	movwf	??_menu
   563  0056                     u207:
   564  0056  2857               	nop2
   565  0057  0BF6               	decfsz	??_menu,f
   566  0058  2856               	goto	u207
   567  0059  285A               	nop2
   568  005A  285B               	nop2
   569                           
   570                           ;lab10canvas.c: 149:      TXREG = 68;
   571  005B  3020               	movlw	32
   572  005C  1283               	bcf	3,5	;RP0=0, select bank0
   573  005D  1303               	bcf	3,6	;RP1=0, select bank0
   574  005E  0099               	movwf	25	;volatile
   575                           
   576                           ;lab10canvas.c: 150:      _delay((unsigned long)((5)*(1000000/4000.0)));
   577  005F  3064               	movlw	100
   578  0060  0099               	movwf	25	;volatile
   579                           
   580                           ;lab10canvas.c: 151:      TXREG = 101;
   581  0061  30F9               	movlw	249
   582  0062  00F6               	movwf	??_menu
   583  0063                     u217:
   584  0063  2864               	nop2
   585  0064  0BF6               	decfsz	??_menu,f
   586  0065  2863               	goto	u217
   587  0066  2867               	nop2
   588  0067  2868               	nop2
   589                           
   590                           ;lab10canvas.c: 152:      TXREG = 115;
   591  0068  3065               	movlw	101
   592  0069  1283               	bcf	3,5	;RP0=0, select bank0
   593  006A  1303               	bcf	3,6	;RP1=0, select bank0
   594  006B  0099               	movwf	25	;volatile
   595                           
   596                           ;lab10canvas.c: 153:      _delay((unsigned long)((5)*(1000000/4000.0)));
   597  006C  3073               	movlw	115
   598  006D  0099               	movwf	25	;volatile
   599                           
   600                           ;lab10canvas.c: 154:      TXREG = 112;
   601  006E  30F9               	movlw	249
   602  006F  00F6               	movwf	??_menu
   603  0070                     u227:
   604  0070  2871               	nop2
   605  0071  0BF6               	decfsz	??_menu,f
   606  0072  2870               	goto	u227
   607  0073  2874               	nop2
   608  0074  2875               	nop2
   609                           
   610                           ;lab10canvas.c: 155:      TXREG = 108;
   611  0075  3065               	movlw	101
   612  0076  1283               	bcf	3,5	;RP0=0, select bank0
   613  0077  1303               	bcf	3,6	;RP1=0, select bank0
   614  0078  0099               	movwf	25	;volatile
   615                           
   616                           ;lab10canvas.c: 156:      _delay((unsigned long)((5)*(1000000/4000.0)));
   617  0079  3061               	movlw	97
   618  007A  0099               	movwf	25	;volatile
   619                           
   620                           ;lab10canvas.c: 157:      TXREG = 101;
   621  007B  30F9               	movlw	249
   622  007C  00F6               	movwf	??_menu
   623  007D                     u237:
   624  007D  287E               	nop2
   625  007E  0BF6               	decfsz	??_menu,f
   626  007F  287D               	goto	u237
   627  0080  2881               	nop2
   628  0081  2882               	nop2
   629                           
   630                           ;lab10canvas.c: 158:      TXREG = 103;
   631  0082  3020               	movlw	32
   632  0083  1283               	bcf	3,5	;RP0=0, select bank0
   633  0084  1303               	bcf	3,6	;RP1=0, select bank0
   634  0085  0099               	movwf	25	;volatile
   635                           
   636                           ;lab10canvas.c: 159:      _delay((unsigned long)((5)*(1000000/4000.0)));
   637  0086  3065               	movlw	101
   638  0087  0099               	movwf	25	;volatile
   639                           
   640                           ;lab10canvas.c: 160:      TXREG = 97;
   641  0088  30F9               	movlw	249
   642  0089  00F6               	movwf	??_menu
   643  008A                     u247:
   644  008A  288B               	nop2
   645  008B  0BF6               	decfsz	??_menu,f
   646  008C  288A               	goto	u247
   647  008D  288E               	nop2
   648  008E  288F               	nop2
   649                           
   650                           ;lab10canvas.c: 161:      TXREG = 114;
   651  008F  306A               	movlw	106
   652  0090  1283               	bcf	3,5	;RP0=0, select bank0
   653  0091  1303               	bcf	3,6	;RP1=0, select bank0
   654  0092  0099               	movwf	25	;volatile
   655                           
   656                           ;lab10canvas.c: 162:      _delay((unsigned long)((5)*(1000000/4000.0)));
   657  0093  3065               	movlw	101
   658  0094  0099               	movwf	25	;volatile
   659                           
   660                           ;lab10canvas.c: 163:      TXREG = 32;
   661  0095  30F9               	movlw	249
   662  0096  00F6               	movwf	??_menu
   663  0097                     u257:
   664  0097  2898               	nop2
   665  0098  0BF6               	decfsz	??_menu,f
   666  0099  2897               	goto	u257
   667  009A  289B               	nop2
   668  009B  289C               	nop2
   669                           
   670                           ;lab10canvas.c: 164:      TXREG = 99;
   671  009C  3063               	movlw	99
   672  009D  1283               	bcf	3,5	;RP0=0, select bank0
   673  009E  1303               	bcf	3,6	;RP1=0, select bank0
   674  009F  0099               	movwf	25	;volatile
   675                           
   676                           ;lab10canvas.c: 165:      _delay((unsigned long)((5)*(1000000/4000.0)));
   677  00A0  3075               	movlw	117
   678  00A1  0099               	movwf	25	;volatile
   679                           
   680                           ;lab10canvas.c: 166:      TXREG = 97;
   681  00A2  30F9               	movlw	249
   682  00A3  00F6               	movwf	??_menu
   683  00A4                     u267:
   684  00A4  28A5               	nop2
   685  00A5  0BF6               	decfsz	??_menu,f
   686  00A6  28A4               	goto	u267
   687  00A7  28A8               	nop2
   688  00A8  28A9               	nop2
   689                           
   690                           ;lab10canvas.c: 167:      TXREG = 100;
   691  00A9  3074               	movlw	116
   692  00AA  1283               	bcf	3,5	;RP0=0, select bank0
   693  00AB  1303               	bcf	3,6	;RP1=0, select bank0
   694  00AC  0099               	movwf	25	;volatile
   695                           
   696                           ;lab10canvas.c: 168:      _delay((unsigned long)((5)*(1000000/4000.0)));
   697  00AD  3061               	movlw	97
   698  00AE  0099               	movwf	25	;volatile
   699                           
   700                           ;lab10canvas.c: 169:      TXREG = 101;
   701  00AF  30F9               	movlw	249
   702  00B0  00F6               	movwf	??_menu
   703  00B1                     u277:
   704  00B1  28B2               	nop2
   705  00B2  0BF6               	decfsz	??_menu,f
   706  00B3  28B1               	goto	u277
   707  00B4  28B5               	nop2
   708  00B5  28B6               	nop2
   709                           
   710                           ;lab10canvas.c: 170:      TXREG = 110;
   711  00B6  3072               	movlw	114
   712  00B7  1283               	bcf	3,5	;RP0=0, select bank0
   713  00B8  1303               	bcf	3,6	;RP1=0, select bank0
   714  00B9  0099               	movwf	25	;volatile
   715                           
   716                           ;lab10canvas.c: 171:      _delay((unsigned long)((5)*(1000000/4000.0)));
   717  00BA  303F               	movlw	63
   718  00BB  0099               	movwf	25	;volatile
   719                           
   720                           ;lab10canvas.c: 172:      TXREG = 97;
   721  00BC  30F9               	movlw	249
   722  00BD  00F6               	movwf	??_menu
   723  00BE                     u287:
   724  00BE  28BF               	nop2
   725  00BF  0BF6               	decfsz	??_menu,f
   726  00C0  28BE               	goto	u287
   727  00C1  28C2               	nop2
   728  00C2  28C3               	nop2
   729                           
   730                           ;lab10canvas.c: 173:      TXREG = 32;
   731  00C3  300D               	movlw	13
   732  00C4  1283               	bcf	3,5	;RP0=0, select bank0
   733  00C5  1303               	bcf	3,6	;RP1=0, select bank0
   734  00C6  0099               	movwf	25	;volatile
   735                           
   736                           ;lab10canvas.c: 174:      _delay((unsigned long)((5)*(1000000/4000.0)));
   737  00C7  3028               	movlw	40
   738  00C8  0099               	movwf	25	;volatile
   739                           
   740                           ;lab10canvas.c: 175:      TXREG = 100;
   741  00C9  30F9               	movlw	249
   742  00CA  00F6               	movwf	??_menu
   743  00CB                     u297:
   744  00CB  28CC               	nop2
   745  00CC  0BF6               	decfsz	??_menu,f
   746  00CD  28CB               	goto	u297
   747  00CE  28CF               	nop2
   748  00CF  28D0               	nop2
   749                           
   750                           ;lab10canvas.c: 176:      TXREG = 101;
   751  00D0  3031               	movlw	49
   752  00D1  1283               	bcf	3,5	;RP0=0, select bank0
   753  00D2  1303               	bcf	3,6	;RP1=0, select bank0
   754  00D3  0099               	movwf	25	;volatile
   755                           
   756                           ;lab10canvas.c: 177:      _delay((unsigned long)((5)*(1000000/4000.0)));
   757  00D4  3029               	movlw	41
   758  00D5  0099               	movwf	25	;volatile
   759                           
   760                           ;lab10canvas.c: 178:      TXREG = 32;
   761  00D6  30F9               	movlw	249
   762  00D7  00F6               	movwf	??_menu
   763  00D8                     u307:
   764  00D8  28D9               	nop2
   765  00D9  0BF6               	decfsz	??_menu,f
   766  00DA  28D8               	goto	u307
   767  00DB  28DC               	nop2
   768  00DC  28DD               	nop2
   769                           
   770                           ;lab10canvas.c: 179:      TXREG = 99;
   771  00DD  3020               	movlw	32
   772  00DE  1283               	bcf	3,5	;RP0=0, select bank0
   773  00DF  1303               	bcf	3,6	;RP1=0, select bank0
   774  00E0  0099               	movwf	25	;volatile
   775                           
   776                           ;lab10canvas.c: 180:      _delay((unsigned long)((5)*(1000000/4000.0)));
   777  00E1  3044               	movlw	68
   778  00E2  0099               	movwf	25	;volatile
   779                           
   780                           ;lab10canvas.c: 181:      TXREG = 97;
   781  00E3  30F9               	movlw	249
   782  00E4  00F6               	movwf	??_menu
   783  00E5                     u317:
   784  00E5  28E6               	nop2
   785  00E6  0BF6               	decfsz	??_menu,f
   786  00E7  28E5               	goto	u317
   787  00E8  28E9               	nop2
   788  00E9  28EA               	nop2
   789                           
   790                           ;lab10canvas.c: 182:      TXREG = 114;
   791  00EA  3065               	movlw	101
   792  00EB  1283               	bcf	3,5	;RP0=0, select bank0
   793  00EC  1303               	bcf	3,6	;RP1=0, select bank0
   794  00ED  0099               	movwf	25	;volatile
   795                           
   796                           ;lab10canvas.c: 183:      _delay((unsigned long)((5)*(1000000/4000.0)));
   797  00EE  3073               	movlw	115
   798  00EF  0099               	movwf	25	;volatile
   799                           
   800                           ;lab10canvas.c: 184:      TXREG = 97;
   801  00F0  30F9               	movlw	249
   802  00F1  00F6               	movwf	??_menu
   803  00F2                     u327:
   804  00F2  28F3               	nop2
   805  00F3  0BF6               	decfsz	??_menu,f
   806  00F4  28F2               	goto	u327
   807  00F5  28F6               	nop2
   808  00F6  28F7               	nop2
   809                           
   810                           ;lab10canvas.c: 185:      TXREG = 99;
   811  00F7  3070               	movlw	112
   812  00F8  1283               	bcf	3,5	;RP0=0, select bank0
   813  00F9  1303               	bcf	3,6	;RP1=0, select bank0
   814  00FA  0099               	movwf	25	;volatile
   815                           
   816                           ;lab10canvas.c: 186:      _delay((unsigned long)((5)*(1000000/4000.0)));
   817  00FB  306C               	movlw	108
   818  00FC  0099               	movwf	25	;volatile
   819                           
   820                           ;lab10canvas.c: 187:      TXREG = 116;
   821  00FD  30F9               	movlw	249
   822  00FE  00F6               	movwf	??_menu
   823  00FF                     u337:
   824  00FF  2900               	nop2
   825  0100  0BF6               	decfsz	??_menu,f
   826  0101  28FF               	goto	u337
   827  0102  2903               	nop2
   828  0103  2904               	nop2
   829                           
   830                           ;lab10canvas.c: 188:      TXREG = 101;
   831  0104  3065               	movlw	101
   832  0105  1283               	bcf	3,5	;RP0=0, select bank0
   833  0106  1303               	bcf	3,6	;RP1=0, select bank0
   834  0107  0099               	movwf	25	;volatile
   835                           
   836                           ;lab10canvas.c: 189:      _delay((unsigned long)((5)*(1000000/4000.0)));
   837  0108  3067               	movlw	103
   838  0109  0099               	movwf	25	;volatile
   839                           
   840                           ;lab10canvas.c: 190:      TXREG = 114;
   841  010A  30F9               	movlw	249
   842  010B  00F6               	movwf	??_menu
   843  010C                     u347:
   844  010C  290D               	nop2
   845  010D  0BF6               	decfsz	??_menu,f
   846  010E  290C               	goto	u347
   847  010F  2910               	nop2
   848  0110  2911               	nop2
   849                           
   850                           ;lab10canvas.c: 191:      TXREG = 101;
   851  0111  3061               	movlw	97
   852  0112  1283               	bcf	3,5	;RP0=0, select bank0
   853  0113  1303               	bcf	3,6	;RP1=0, select bank0
   854  0114  0099               	movwf	25	;volatile
   855                           
   856                           ;lab10canvas.c: 192:      _delay((unsigned long)((5)*(1000000/4000.0)));
   857  0115  3072               	movlw	114
   858  0116  0099               	movwf	25	;volatile
   859                           
   860                           ;lab10canvas.c: 193:      TXREG = 115;
   861  0117  30F9               	movlw	249
   862  0118  00F6               	movwf	??_menu
   863  0119                     u357:
   864  0119  291A               	nop2
   865  011A  0BF6               	decfsz	??_menu,f
   866  011B  2919               	goto	u357
   867  011C  291D               	nop2
   868  011D  291E               	nop2
   869                           
   870                           ;lab10canvas.c: 194:      TXREG = 13;
   871  011E  3020               	movlw	32
   872  011F  1283               	bcf	3,5	;RP0=0, select bank0
   873  0120  1303               	bcf	3,6	;RP1=0, select bank0
   874  0121  0099               	movwf	25	;volatile
   875                           
   876                           ;lab10canvas.c: 195:      _delay((unsigned long)((5)*(1000000/4000.0)));
   877  0122  3063               	movlw	99
   878  0123  0099               	movwf	25	;volatile
   879                           
   880                           ;lab10canvas.c: 196:      TXREG = 40;
   881  0124  30F9               	movlw	249
   882  0125  00F6               	movwf	??_menu
   883  0126                     u367:
   884  0126  2927               	nop2
   885  0127  0BF6               	decfsz	??_menu,f
   886  0128  2926               	goto	u367
   887  0129  292A               	nop2
   888  012A  292B               	nop2
   889                           
   890                           ;lab10canvas.c: 197:      TXREG = 50;
   891  012B  3061               	movlw	97
   892  012C  1283               	bcf	3,5	;RP0=0, select bank0
   893  012D  1303               	bcf	3,6	;RP1=0, select bank0
   894  012E  0099               	movwf	25	;volatile
   895                           
   896                           ;lab10canvas.c: 198:      _delay((unsigned long)((5)*(1000000/4000.0)));
   897  012F  3064               	movlw	100
   898  0130  0099               	movwf	25	;volatile
   899                           
   900                           ;lab10canvas.c: 199:      TXREG = 41;
   901  0131  30F9               	movlw	249
   902  0132  00F6               	movwf	??_menu
   903  0133                     u377:
   904  0133  2934               	nop2
   905  0134  0BF6               	decfsz	??_menu,f
   906  0135  2933               	goto	u377
   907  0136  2937               	nop2
   908  0137  2938               	nop2
   909                           
   910                           ;lab10canvas.c: 200:      TXREG = 32;
   911  0138  3065               	movlw	101
   912  0139  1283               	bcf	3,5	;RP0=0, select bank0
   913  013A  1303               	bcf	3,6	;RP1=0, select bank0
   914  013B  0099               	movwf	25	;volatile
   915                           
   916                           ;lab10canvas.c: 201:      _delay((unsigned long)((5)*(1000000/4000.0)));
   917  013C  306E               	movlw	110
   918  013D  0099               	movwf	25	;volatile
   919                           
   920                           ;lab10canvas.c: 202:      TXREG = 67;
   921  013E  30F9               	movlw	249
   922  013F  00F6               	movwf	??_menu
   923  0140                     u387:
   924  0140  2941               	nop2
   925  0141  0BF6               	decfsz	??_menu,f
   926  0142  2940               	goto	u387
   927  0143  2944               	nop2
   928  0144  2945               	nop2
   929                           
   930                           ;lab10canvas.c: 203:      TXREG = 97;
   931  0145  3061               	movlw	97
   932  0146  1283               	bcf	3,5	;RP0=0, select bank0
   933  0147  1303               	bcf	3,6	;RP1=0, select bank0
   934  0148  0099               	movwf	25	;volatile
   935                           
   936                           ;lab10canvas.c: 204:      _delay((unsigned long)((5)*(1000000/4000.0)));
   937  0149  3020               	movlw	32
   938  014A  0099               	movwf	25	;volatile
   939                           
   940                           ;lab10canvas.c: 205:      TXREG = 109;
   941  014B  30F9               	movlw	249
   942  014C  00F6               	movwf	??_menu
   943  014D                     u397:
   944  014D  294E               	nop2
   945  014E  0BF6               	decfsz	??_menu,f
   946  014F  294D               	goto	u397
   947  0150  2951               	nop2
   948  0151  2952               	nop2
   949                           
   950                           ;lab10canvas.c: 206:      TXREG = 98;
   951  0152  3064               	movlw	100
   952  0153  1283               	bcf	3,5	;RP0=0, select bank0
   953  0154  1303               	bcf	3,6	;RP1=0, select bank0
   954  0155  0099               	movwf	25	;volatile
   955                           
   956                           ;lab10canvas.c: 207:      _delay((unsigned long)((5)*(1000000/4000.0)));
   957  0156  3065               	movlw	101
   958  0157  0099               	movwf	25	;volatile
   959                           
   960                           ;lab10canvas.c: 208:      TXREG = 105;
   961  0158  30F9               	movlw	249
   962  0159  00F6               	movwf	??_menu
   963  015A                     u407:
   964  015A  295B               	nop2
   965  015B  0BF6               	decfsz	??_menu,f
   966  015C  295A               	goto	u407
   967  015D  295E               	nop2
   968  015E  295F               	nop2
   969                           
   970                           ;lab10canvas.c: 209:      TXREG = 97;
   971  015F  3020               	movlw	32
   972  0160  1283               	bcf	3,5	;RP0=0, select bank0
   973  0161  1303               	bcf	3,6	;RP1=0, select bank0
   974  0162  0099               	movwf	25	;volatile
   975                           
   976                           ;lab10canvas.c: 210:      _delay((unsigned long)((5)*(1000000/4000.0)));
   977  0163  3063               	movlw	99
   978  0164  0099               	movwf	25	;volatile
   979                           
   980                           ;lab10canvas.c: 211:      TXREG = 114;
   981  0165  30F9               	movlw	249
   982  0166  00F6               	movwf	??_menu
   983  0167                     u417:
   984  0167  2968               	nop2
   985  0168  0BF6               	decfsz	??_menu,f
   986  0169  2967               	goto	u417
   987  016A  296B               	nop2
   988  016B  296C               	nop2
   989                           
   990                           ;lab10canvas.c: 212:      TXREG = 32;
   991  016C  3061               	movlw	97
   992  016D  1283               	bcf	3,5	;RP0=0, select bank0
   993  016E  1303               	bcf	3,6	;RP1=0, select bank0
   994  016F  0099               	movwf	25	;volatile
   995                           
   996                           ;lab10canvas.c: 213:      _delay((unsigned long)((5)*(1000000/4000.0)));
   997  0170  3072               	movlw	114
   998  0171  0099               	movwf	25	;volatile
   999                           
  1000                           ;lab10canvas.c: 214:      TXREG = 80;
  1001  0172  30F9               	movlw	249
  1002  0173  00F6               	movwf	??_menu
  1003  0174                     u427:
  1004  0174  2975               	nop2
  1005  0175  0BF6               	decfsz	??_menu,f
  1006  0176  2974               	goto	u427
  1007  0177  2978               	nop2
  1008  0178  2979               	nop2
  1009                           
  1010                           ;lab10canvas.c: 215:      TXREG = 79;
  1011  0179  3061               	movlw	97
  1012  017A  1283               	bcf	3,5	;RP0=0, select bank0
  1013  017B  1303               	bcf	3,6	;RP1=0, select bank0
  1014  017C  0099               	movwf	25	;volatile
  1015                           
  1016                           ;lab10canvas.c: 216:      _delay((unsigned long)((5)*(1000000/4000.0)));
  1017  017D  3063               	movlw	99
  1018  017E  0099               	movwf	25	;volatile
  1019                           
  1020                           ;lab10canvas.c: 217:      TXREG = 82;
  1021  017F  30F9               	movlw	249
  1022  0180  00F6               	movwf	??_menu
  1023  0181                     u437:
  1024  0181  2982               	nop2
  1025  0182  0BF6               	decfsz	??_menu,f
  1026  0183  2981               	goto	u437
  1027  0184  2985               	nop2
  1028  0185  2986               	nop2
  1029                           
  1030                           ;lab10canvas.c: 218:      TXREG = 84;
  1031  0186  3074               	movlw	116
  1032  0187  1283               	bcf	3,5	;RP0=0, select bank0
  1033  0188  1303               	bcf	3,6	;RP1=0, select bank0
  1034  0189  0099               	movwf	25	;volatile
  1035                           
  1036                           ;lab10canvas.c: 219:      _delay((unsigned long)((5)*(1000000/4000.0)));
  1037  018A  3065               	movlw	101
  1038  018B  0099               	movwf	25	;volatile
  1039                           
  1040                           ;lab10canvas.c: 220:      TXREG = 65;
  1041  018C  30F9               	movlw	249
  1042  018D  00F6               	movwf	??_menu
  1043  018E                     u447:
  1044  018E  298F               	nop2
  1045  018F  0BF6               	decfsz	??_menu,f
  1046  0190  298E               	goto	u447
  1047  0191  2992               	nop2
  1048  0192  2993               	nop2
  1049                           
  1050                           ;lab10canvas.c: 221:      TXREG = 13;
  1051  0193  3072               	movlw	114
  1052  0194  1283               	bcf	3,5	;RP0=0, select bank0
  1053  0195  1303               	bcf	3,6	;RP1=0, select bank0
  1054  0196  0099               	movwf	25	;volatile
  1055                           
  1056                           ;lab10canvas.c: 222:      _delay((unsigned long)((5)*(1000000/4000.0)));
  1057  0197  3065               	movlw	101
  1058  0198  0099               	movwf	25	;volatile
  1059                           
  1060                           ;lab10canvas.c: 223:      TXREG = 40;
  1061  0199  30F9               	movlw	249
  1062  019A  00F6               	movwf	??_menu
  1063  019B                     u457:
  1064  019B  299C               	nop2
  1065  019C  0BF6               	decfsz	??_menu,f
  1066  019D  299B               	goto	u457
  1067  019E  299F               	nop2
  1068  019F  29A0               	nop2
  1069                           
  1070                           ;lab10canvas.c: 224:      TXREG = 51;
  1071  01A0  3073               	movlw	115
  1072  01A1  1283               	bcf	3,5	;RP0=0, select bank0
  1073  01A2  1303               	bcf	3,6	;RP1=0, select bank0
  1074  01A3  0099               	movwf	25	;volatile
  1075                           
  1076                           ;lab10canvas.c: 225:      _delay((unsigned long)((5)*(1000000/4000.0)));
  1077  01A4  300D               	movlw	13
  1078  01A5  0099               	movwf	25	;volatile
  1079                           
  1080                           ;lab10canvas.c: 226:      TXREG = 41;
  1081  01A6  30F9               	movlw	249
  1082  01A7  00F6               	movwf	??_menu
  1083  01A8                     u467:
  1084  01A8  29A9               	nop2
  1085  01A9  0BF6               	decfsz	??_menu,f
  1086  01AA  29A8               	goto	u467
  1087  01AB  29AC               	nop2
  1088  01AC  29AD               	nop2
  1089                           
  1090                           ;lab10canvas.c: 227:      TXREG = 32;
  1091  01AD  3028               	movlw	40
  1092  01AE  1283               	bcf	3,5	;RP0=0, select bank0
  1093  01AF  1303               	bcf	3,6	;RP1=0, select bank0
  1094  01B0  0099               	movwf	25	;volatile
  1095                           
  1096                           ;lab10canvas.c: 228:      _delay((unsigned long)((5)*(1000000/4000.0)));
  1097  01B1  3032               	movlw	50
  1098  01B2  0099               	movwf	25	;volatile
  1099                           
  1100                           ;lab10canvas.c: 229:      TXREG = 67;
  1101  01B3  30F9               	movlw	249
  1102  01B4  00F6               	movwf	??_menu
  1103  01B5                     u477:
  1104  01B5  29B6               	nop2
  1105  01B6  0BF6               	decfsz	??_menu,f
  1106  01B7  29B5               	goto	u477
  1107  01B8  29B9               	nop2
  1108  01B9  29BA               	nop2
  1109                           
  1110                           ;lab10canvas.c: 230:      TXREG = 97;
  1111  01BA  3029               	movlw	41
  1112  01BB  1283               	bcf	3,5	;RP0=0, select bank0
  1113  01BC  1303               	bcf	3,6	;RP1=0, select bank0
  1114  01BD  0099               	movwf	25	;volatile
  1115                           
  1116                           ;lab10canvas.c: 231:      _delay((unsigned long)((5)*(1000000/4000.0)));
  1117  01BE  3020               	movlw	32
  1118  01BF  0099               	movwf	25	;volatile
  1119                           
  1120                           ;lab10canvas.c: 232:      TXREG = 109;
  1121  01C0  30F9               	movlw	249
  1122  01C1  00F6               	movwf	??_menu
  1123  01C2                     u487:
  1124  01C2  29C3               	nop2
  1125  01C3  0BF6               	decfsz	??_menu,f
  1126  01C4  29C2               	goto	u487
  1127  01C5  29C6               	nop2
  1128  01C6  29C7               	nop2
  1129                           
  1130                           ;lab10canvas.c: 233:      TXREG = 98;
  1131  01C7  3043               	movlw	67
  1132  01C8  1283               	bcf	3,5	;RP0=0, select bank0
  1133  01C9  1303               	bcf	3,6	;RP1=0, select bank0
  1134  01CA  0099               	movwf	25	;volatile
  1135                           
  1136                           ;lab10canvas.c: 234:      _delay((unsigned long)((5)*(1000000/4000.0)));
  1137  01CB  3061               	movlw	97
  1138  01CC  0099               	movwf	25	;volatile
  1139                           
  1140                           ;lab10canvas.c: 235:      TXREG = 105;
  1141  01CD  30F9               	movlw	249
  1142  01CE  00F6               	movwf	??_menu
  1143  01CF                     u497:
  1144  01CF  29D0               	nop2
  1145  01D0  0BF6               	decfsz	??_menu,f
  1146  01D1  29CF               	goto	u497
  1147  01D2  29D3               	nop2
  1148  01D3  29D4               	nop2
  1149                           
  1150                           ;lab10canvas.c: 236:      TXREG = 97;
  1151  01D4  306D               	movlw	109
  1152  01D5  1283               	bcf	3,5	;RP0=0, select bank0
  1153  01D6  1303               	bcf	3,6	;RP1=0, select bank0
  1154  01D7  0099               	movwf	25	;volatile
  1155                           
  1156                           ;lab10canvas.c: 237:      _delay((unsigned long)((5)*(1000000/4000.0)));
  1157  01D8  3062               	movlw	98
  1158  01D9  0099               	movwf	25	;volatile
  1159                           
  1160                           ;lab10canvas.c: 238:      TXREG = 114;
  1161  01DA  30F9               	movlw	249
  1162  01DB  00F6               	movwf	??_menu
  1163  01DC                     u507:
  1164  01DC  29DD               	nop2
  1165  01DD  0BF6               	decfsz	??_menu,f
  1166  01DE  29DC               	goto	u507
  1167  01DF  29E0               	nop2
  1168  01E0  29E1               	nop2
  1169                           
  1170                           ;lab10canvas.c: 239:      TXREG = 32;
  1171  01E1  3069               	movlw	105
  1172  01E2  1283               	bcf	3,5	;RP0=0, select bank0
  1173  01E3  1303               	bcf	3,6	;RP1=0, select bank0
  1174  01E4  0099               	movwf	25	;volatile
  1175                           
  1176                           ;lab10canvas.c: 240:      _delay((unsigned long)((5)*(1000000/4000.0)));
  1177  01E5  3061               	movlw	97
  1178  01E6  0099               	movwf	25	;volatile
  1179                           
  1180                           ;lab10canvas.c: 241:      TXREG = 80;
  1181  01E7  30F9               	movlw	249
  1182  01E8  00F6               	movwf	??_menu
  1183  01E9                     u517:
  1184  01E9  29EA               	nop2
  1185  01EA  0BF6               	decfsz	??_menu,f
  1186  01EB  29E9               	goto	u517
  1187  01EC  29ED               	nop2
  1188  01ED  29EE               	nop2
  1189                           
  1190                           ;lab10canvas.c: 242:      TXREG = 79;
  1191  01EE  3072               	movlw	114
  1192  01EF  1283               	bcf	3,5	;RP0=0, select bank0
  1193  01F0  1303               	bcf	3,6	;RP1=0, select bank0
  1194  01F1  0099               	movwf	25	;volatile
  1195                           
  1196                           ;lab10canvas.c: 243:      _delay((unsigned long)((5)*(1000000/4000.0)));
  1197  01F2  3020               	movlw	32
  1198  01F3  0099               	movwf	25	;volatile
  1199                           
  1200                           ;lab10canvas.c: 244:      TXREG = 82;
  1201  01F4  30F9               	movlw	249
  1202  01F5  00F6               	movwf	??_menu
  1203  01F6                     u527:
  1204  01F6  29F7               	nop2
  1205  01F7  0BF6               	decfsz	??_menu,f
  1206  01F8  29F6               	goto	u527
  1207  01F9  29FA               	nop2
  1208  01FA  29FB               	nop2
  1209                           
  1210                           ;lab10canvas.c: 245:      TXREG = 84;
  1211  01FB  3050               	movlw	80
  1212  01FC  1283               	bcf	3,5	;RP0=0, select bank0
  1213  01FD  1303               	bcf	3,6	;RP1=0, select bank0
  1214  01FE  0099               	movwf	25	;volatile
  1215                           
  1216                           ;lab10canvas.c: 246:      _delay((unsigned long)((5)*(1000000/4000.0)));
  1217  01FF  304F               	movlw	79
  1218  0200  0099               	movwf	25	;volatile
  1219                           
  1220                           ;lab10canvas.c: 247:      TXREG = 66;
  1221  0201  30F9               	movlw	249
  1222  0202  00F6               	movwf	??_menu
  1223  0203                     u537:
  1224  0203  2A04               	nop2
  1225  0204  0BF6               	decfsz	??_menu,f
  1226  0205  2A03               	goto	u537
  1227  0206  2A07               	nop2
  1228  0207  2A08               	nop2
  1229                           
  1230                           ;lab10canvas.c: 248:      TXREG = 13;}
  1231  0208  3052               	movlw	82
  1232  0209  1283               	bcf	3,5	;RP0=0, select bank0
  1233  020A  1303               	bcf	3,6	;RP1=0, select bank0
  1234  020B  0099               	movwf	25	;volatile
  1235                           
  1236                           ;lab10canvas.c: 249: }
  1237  020C  3054               	movlw	84
  1238  020D  0099               	movwf	25	;volatile
  1239                           
  1240                           ;lab10canvas.c: 250: 
  1241  020E  30F9               	movlw	249
  1242  020F  00F6               	movwf	??_menu
  1243  0210                     u547:
  1244  0210  2A11               	nop2
  1245  0211  0BF6               	decfsz	??_menu,f
  1246  0212  2A10               	goto	u547
  1247  0213  2A14               	nop2
  1248  0214  2A15               	nop2
  1249                           
  1250                           ;lab10canvas.c: 251: void __attribute__((picinterrupt(("")))) isr(void){
  1251  0215  3041               	movlw	65
  1252  0216  1283               	bcf	3,5	;RP0=0, select bank0
  1253  0217  1303               	bcf	3,6	;RP1=0, select bank0
  1254  0218  0099               	movwf	25	;volatile
  1255                           
  1256                           ;lab10canvas.c: 252: 
  1257  0219  300D               	movlw	13
  1258  021A  0099               	movwf	25	;volatile
  1259                           
  1260                           ;lab10canvas.c: 253:     if (PIR1bits.RCIF) {
  1261  021B  30F9               	movlw	249
  1262  021C  00F6               	movwf	??_menu
  1263  021D                     u557:
  1264  021D  2A1E               	nop2
  1265  021E  0BF6               	decfsz	??_menu,f
  1266  021F  2A1D               	goto	u557
  1267  0220  2A21               	nop2
  1268  0221  2A22               	nop2
  1269                           
  1270                           ;lab10canvas.c: 254:     switch (RCREG){
  1271  0222  3028               	movlw	40
  1272  0223  1283               	bcf	3,5	;RP0=0, select bank0
  1273  0224  1303               	bcf	3,6	;RP1=0, select bank0
  1274  0225  0099               	movwf	25	;volatile
  1275                           
  1276                           ;lab10canvas.c: 255:         case 49:
  1277  0226  3033               	movlw	51
  1278  0227  0099               	movwf	25	;volatile
  1279                           
  1280                           ;lab10canvas.c: 256:         caracteres();
  1281  0228  30F9               	movlw	249
  1282  0229  00F6               	movwf	??_menu
  1283  022A                     u567:
  1284  022A  2A2B               	nop2
  1285  022B  0BF6               	decfsz	??_menu,f
  1286  022C  2A2A               	goto	u567
  1287  022D  2A2E               	nop2
  1288  022E  2A2F               	nop2
  1289                           
  1290                           ;lab10canvas.c: 257:         if (PIR1bits.TXIF){
  1291  022F  3029               	movlw	41
  1292  0230  1283               	bcf	3,5	;RP0=0, select bank0
  1293  0231  1303               	bcf	3,6	;RP1=0, select bank0
  1294  0232  0099               	movwf	25	;volatile
  1295                           
  1296                           ;lab10canvas.c: 258:             TXREG = 13;
  1297  0233  3020               	movlw	32
  1298  0234  0099               	movwf	25	;volatile
  1299                           
  1300                           ;lab10canvas.c: 259:         }
  1301  0235  30F9               	movlw	249
  1302  0236  00F6               	movwf	??_menu
  1303  0237                     u577:
  1304  0237  2A38               	nop2
  1305  0238  0BF6               	decfsz	??_menu,f
  1306  0239  2A37               	goto	u577
  1307  023A  2A3B               	nop2
  1308  023B  2A3C               	nop2
  1309                           
  1310                           ;lab10canvas.c: 260:         _delay((unsigned long)((5)*(1000000/4000.0)));
  1311  023C  3043               	movlw	67
  1312  023D  1283               	bcf	3,5	;RP0=0, select bank0
  1313  023E  1303               	bcf	3,6	;RP1=0, select bank0
  1314  023F  0099               	movwf	25	;volatile
  1315                           
  1316                           ;lab10canvas.c: 261:         menu();
  1317  0240  3061               	movlw	97
  1318  0241  0099               	movwf	25	;volatile
  1319                           
  1320                           ;lab10canvas.c: 262:         break;
  1321  0242  30F9               	movlw	249
  1322  0243  00F6               	movwf	??_menu
  1323  0244                     u587:
  1324  0244  2A45               	nop2
  1325  0245  0BF6               	decfsz	??_menu,f
  1326  0246  2A44               	goto	u587
  1327  0247  2A48               	nop2
  1328  0248  2A49               	nop2
  1329                           
  1330                           ;lab10canvas.c: 263: 
  1331  0249  306D               	movlw	109
  1332  024A  1283               	bcf	3,5	;RP0=0, select bank0
  1333  024B  1303               	bcf	3,6	;RP1=0, select bank0
  1334  024C  0099               	movwf	25	;volatile
  1335                           
  1336                           ;lab10canvas.c: 264:         case 50:
  1337  024D  3062               	movlw	98
  1338  024E  0099               	movwf	25	;volatile
  1339                           
  1340                           ;lab10canvas.c: 265:         nuevocaracter();
  1341  024F  30F9               	movlw	249
  1342  0250  00F6               	movwf	??_menu
  1343  0251                     u597:
  1344  0251  2A52               	nop2
  1345  0252  0BF6               	decfsz	??_menu,f
  1346  0253  2A51               	goto	u597
  1347  0254  2A55               	nop2
  1348  0255  2A56               	nop2
  1349                           
  1350                           ;lab10canvas.c: 266:         do
  1351  0256  3069               	movlw	105
  1352  0257  1283               	bcf	3,5	;RP0=0, select bank0
  1353  0258  1303               	bcf	3,6	;RP1=0, select bank0
  1354  0259  0099               	movwf	25	;volatile
  1355                           
  1356                           ;lab10canvas.c: 267:         {
  1357  025A  3061               	movlw	97
  1358  025B  0099               	movwf	25	;volatile
  1359                           
  1360                           ;lab10canvas.c: 268:         if (PIR1bits.RCIF){
  1361  025C  30F9               	movlw	249
  1362  025D  00F6               	movwf	??_menu
  1363  025E                     u607:
  1364  025E  2A5F               	nop2
  1365  025F  0BF6               	decfsz	??_menu,f
  1366  0260  2A5E               	goto	u607
  1367  0261  2A62               	nop2
  1368  0262  2A63               	nop2
  1369                           
  1370                           ;lab10canvas.c: 269:             PORTA = RCREG;
  1371  0263  3072               	movlw	114
  1372  0264  1283               	bcf	3,5	;RP0=0, select bank0
  1373  0265  1303               	bcf	3,6	;RP1=0, select bank0
  1374  0266  0099               	movwf	25	;volatile
  1375                           
  1376                           ;lab10canvas.c: 270:             centinela = 255;
  1377  0267  3020               	movlw	32
  1378  0268  0099               	movwf	25	;volatile
  1379                           
  1380                           ;lab10canvas.c: 271:             }
  1381  0269  30F9               	movlw	249
  1382  026A  00F6               	movwf	??_menu
  1383  026B                     u617:
  1384  026B  2A6C               	nop2
  1385  026C  0BF6               	decfsz	??_menu,f
  1386  026D  2A6B               	goto	u617
  1387  026E  2A6F               	nop2
  1388  026F  2A70               	nop2
  1389                           
  1390                           ;lab10canvas.c: 272: 
  1391  0270  3050               	movlw	80
  1392  0271  1283               	bcf	3,5	;RP0=0, select bank0
  1393  0272  1303               	bcf	3,6	;RP1=0, select bank0
  1394  0273  0099               	movwf	25	;volatile
  1395                           
  1396                           ;lab10canvas.c: 273:         }
  1397  0274  304F               	movlw	79
  1398  0275  0099               	movwf	25	;volatile
  1399                           
  1400                           ;lab10canvas.c: 274:         while (centinela == 0);
  1401  0276  30F9               	movlw	249
  1402  0277  00F6               	movwf	??_menu
  1403  0278                     u627:
  1404  0278  2A79               	nop2
  1405  0279  0BF6               	decfsz	??_menu,f
  1406  027A  2A78               	goto	u627
  1407  027B  2A7C               	nop2
  1408  027C  2A7D               	nop2
  1409                           
  1410                           ;lab10canvas.c: 275:             _delay((unsigned long)((5)*(1000000/4000.0)));
  1411  027D  3052               	movlw	82
  1412  027E  1283               	bcf	3,5	;RP0=0, select bank0
  1413  027F  1303               	bcf	3,6	;RP1=0, select bank0
  1414  0280  0099               	movwf	25	;volatile
  1415                           
  1416                           ;lab10canvas.c: 276:             if (PIR1bits.TXIF)
  1417  0281  3054               	movlw	84
  1418  0282  0099               	movwf	25	;volatile
  1419                           
  1420                           ;lab10canvas.c: 277:                 {TXREG = 13;}
  1421  0283  30F9               	movlw	249
  1422  0284  00F6               	movwf	??_menu
  1423  0285                     u637:
  1424  0285  2A86               	nop2
  1425  0286  0BF6               	decfsz	??_menu,f
  1426  0287  2A85               	goto	u637
  1427  0288  2A89               	nop2
  1428  0289  2A8A               	nop2
  1429                           
  1430                           ;lab10canvas.c: 278:             _delay((unsigned long)((5)*(1000000/4000.0)));
  1431  028A  3042               	movlw	66
  1432  028B  1283               	bcf	3,5	;RP0=0, select bank0
  1433  028C  1303               	bcf	3,6	;RP1=0, select bank0
  1434  028D  0099               	movwf	25	;volatile
  1435                           
  1436                           ;lab10canvas.c: 279:             if (PIR1bits.TXIF)
  1437  028E  300D               	movlw	13
  1438  028F  0099               	movwf	25	;volatile
  1439  0290                     l50:
  1440  0290  0008               	return
  1441  0291                     __end_of_menu:
  1442                           
  1443                           	psect	text2
  1444  060B                     __ptext2:	
  1445 ;; *************** function _isr *****************
  1446 ;; Defined at:
  1447 ;;		line 282 in file "lab10canvas.c"
  1448 ;; Parameters:    Size  Location     Type
  1449 ;;		None
  1450 ;; Auto vars:     Size  Location     Type
  1451 ;;		None
  1452 ;; Return value:  Size  Location     Type
  1453 ;;                  1    wreg      void 
  1454 ;; Registers used:
  1455 ;;		wreg, fsr0l, fsr0h, status,2, status,0, pclath, cstack
  1456 ;; Tracked objects:
  1457 ;;		On entry : 0/0
  1458 ;;		On exit  : 0/0
  1459 ;;		Unchanged: 0/0
  1460 ;; Data sizes:     COMMON   BANK0   BANK1   BANK3   BANK2
  1461 ;;      Params:         0       0       0       0       0
  1462 ;;      Locals:         0       0       0       0       0
  1463 ;;      Temps:          5       0       0       0       0
  1464 ;;      Totals:         5       0       0       0       0
  1465 ;;Total ram usage:        5 bytes
  1466 ;; Hardware stack levels used:    1
  1467 ;; Hardware stack levels required when called:    1
  1468 ;; This function calls:
  1469 ;;		_caracteres
  1470 ;;		_nuevocaracter
  1471 ;;		i1_menu
  1472 ;; This function is called by:
  1473 ;;		Interrupt level 1
  1474 ;; This function uses a non-reentrant model
  1475 ;;
  1476                           
  1477                           
  1478                           ;psect for function _isr
  1479  060B                     _isr:
  1480  060B                     i1l802:
  1481                           
  1482                           ;lab10canvas.c: 284:             centinela = 0;
  1483  060B  1283               	bcf	3,5	;RP0=0, select bank0
  1484  060C  1303               	bcf	3,6	;RP1=0, select bank0
  1485  060D  1E8C               	btfss	12,5	;volatile
  1486  060E  2E10               	goto	u5_21
  1487  060F  2E11               	goto	u5_20
  1488  0610                     u5_21:
  1489  0610  2EC9               	goto	i1l72
  1490  0611                     u5_20:
  1491  0611  2EB6               	goto	i1l862
  1492  0612                     i1l806:
  1493                           
  1494                           ;lab10canvas.c: 287:         case 51:
  1495  0612  120A  118A  250C  120A  118A  	fcall	_caracteres
  1496  0617                     i1l808:
  1497                           
  1498                           ;lab10canvas.c: 288:         nuevocaracter();
  1499  0617  1283               	bcf	3,5	;RP0=0, select bank0
  1500  0618  1303               	bcf	3,6	;RP1=0, select bank0
  1501  0619  1E0C               	btfss	12,4	;volatile
  1502  061A  2E1C               	goto	u6_21
  1503  061B  2E1D               	goto	u6_20
  1504  061C                     u6_21:
  1505  061C  2E1F               	goto	i1l58
  1506  061D                     u6_20:
  1507  061D                     i1l810:
  1508                           
  1509                           ;lab10canvas.c: 289:         do
  1510  061D  300D               	movlw	13
  1511  061E  0099               	movwf	25	;volatile
  1512  061F                     i1l58:	
  1513                           ;lab10canvas.c: 290:         {
  1514                           
  1515                           
  1516                           ;lab10canvas.c: 291:         if (PIR1bits.RCIF){
  1517  061F  30F9               	movlw	249
  1518  0620  00F1               	movwf	??_isr
  1519  0621                     u64_27:
  1520  0621  2E22               	nop2
  1521  0622  0BF1               	decfsz	??_isr,f
  1522  0623  2E21               	goto	u64_27
  1523  0624  2E25               	nop2
  1524  0625  2E26               	nop2
  1525  0626                     i1l812:
  1526                           
  1527                           ;lab10canvas.c: 292:             PORTB = RCREG;
  1528  0626  120A  118A  2291  120A  118A  	fcall	i1_menu
  1529                           
  1530                           ;lab10canvas.c: 293:             centinela = 255;
  1531  062B  2EC9               	goto	i1l72
  1532  062C                     i1l814:
  1533                           
  1534                           ;lab10canvas.c: 296:         }
  1535  062C  120A  118A  26D2  120A  118A  	fcall	_nuevocaracter
  1536  0631                     i1l816:
  1537                           
  1538                           ;lab10canvas.c: 298:             _delay((unsigned long)((5)*(1000000/4000.0)));;lab10can
      +                          vas.c: 299:             if (PIR1bits.TXIF)
  1539  0631  1283               	bcf	3,5	;RP0=0, select bank0
  1540  0632  1303               	bcf	3,6	;RP1=0, select bank0
  1541  0633  1E8C               	btfss	12,5	;volatile
  1542  0634  2E36               	goto	u7_21
  1543  0635  2E37               	goto	u7_20
  1544  0636                     u7_21:
  1545  0636  2E3D               	goto	i1l820
  1546  0637                     u7_20:
  1547  0637                     i1l818:
  1548                           
  1549                           ;lab10canvas.c: 300:                 {TXREG = 13;}
  1550  0637  081A               	movf	26,w	;volatile
  1551  0638  0085               	movwf	5	;volatile
  1552                           
  1553                           ;lab10canvas.c: 301:             _delay((unsigned long)((5)*(1000000/4000.0)));
  1554  0639  30FF               	movlw	255
  1555  063A  00F1               	movwf	??_isr
  1556  063B  0871               	movf	??_isr,w
  1557  063C  00F8               	movwf	_centinela
  1558  063D                     i1l820:
  1559                           
  1560                           ;lab10canvas.c: 304:             _delay((unsigned long)((5)*(1000000/4000.0)));
  1561  063D  0878               	movf	_centinela,w
  1562  063E  1903               	btfsc	3,2
  1563  063F  2E41               	goto	u8_21
  1564  0640  2E42               	goto	u8_20
  1565  0641                     u8_21:
  1566  0641  2E31               	goto	i1l816
  1567  0642                     u8_20:
  1568  0642                     i1l822:
  1569                           
  1570                           ;lab10canvas.c: 306:             centinela = 0;
  1571  0642  30F9               	movlw	249
  1572  0643  00F1               	movwf	??_isr
  1573  0644                     u65_27:
  1574  0644  2E45               	nop2
  1575  0645  0BF1               	decfsz	??_isr,f
  1576  0646  2E44               	goto	u65_27
  1577  0647  2E48               	nop2
  1578  0648  2E49               	nop2
  1579  0649                     i1l824:
  1580                           
  1581                           ;lab10canvas.c: 307:             break;
  1582  0649  1283               	bcf	3,5	;RP0=0, select bank0
  1583  064A  1303               	bcf	3,6	;RP1=0, select bank0
  1584  064B  1E0C               	btfss	12,4	;volatile
  1585  064C  2E4E               	goto	u9_21
  1586  064D  2E4F               	goto	u9_20
  1587  064E                     u9_21:
  1588  064E  2E51               	goto	i1l64
  1589  064F                     u9_20:
  1590  064F                     i1l826:
  1591                           
  1592                           ;lab10canvas.c: 308:         }
  1593  064F  300D               	movlw	13
  1594  0650  0099               	movwf	25	;volatile
  1595  0651                     i1l64:
  1596                           
  1597                           ;lab10canvas.c: 309:     }
  1598  0651  30F9               	movlw	249
  1599  0652  00F1               	movwf	??_isr
  1600  0653                     u66_27:
  1601  0653  2E54               	nop2
  1602  0654  0BF1               	decfsz	??_isr,f
  1603  0655  2E53               	goto	u66_27
  1604  0656  2E57               	nop2
  1605  0657  2E58               	nop2
  1606  0658                     i1l828:
  1607                           
  1608                           ;lab10canvas.c: 310: }
  1609  0658  1283               	bcf	3,5	;RP0=0, select bank0
  1610  0659  1303               	bcf	3,6	;RP1=0, select bank0
  1611  065A  1E0C               	btfss	12,4	;volatile
  1612  065B  2E5D               	goto	u10_21
  1613  065C  2E5E               	goto	u10_20
  1614  065D                     u10_21:
  1615  065D  2E60               	goto	i1l65
  1616  065E                     u10_20:
  1617  065E                     i1l830:
  1618                           
  1619                           ;lab10canvas.c: 311: 
  1620  065E  300D               	movlw	13
  1621  065F  0099               	movwf	25	;volatile
  1622  0660                     i1l65:
  1623                           
  1624                           ;lab10canvas.c: 312: void main(void) {
  1625  0660  30F9               	movlw	249
  1626  0661  00F1               	movwf	??_isr
  1627  0662                     u67_27:
  1628  0662  2E63               	nop2
  1629  0663  0BF1               	decfsz	??_isr,f
  1630  0664  2E62               	goto	u67_27
  1631  0665  2E66               	nop2
  1632  0666  2E67               	nop2
  1633  0667                     i1l832:
  1634                           
  1635                           ;lab10canvas.c: 313: 
  1636  0667  120A  118A  2291  120A  118A  	fcall	i1_menu
  1637  066C                     i1l834:
  1638                           
  1639                           ;lab10canvas.c: 314: 
  1640  066C  30F9               	movlw	249
  1641  066D  00F1               	movwf	??_isr
  1642  066E                     u68_27:
  1643  066E  2E6F               	nop2
  1644  066F  0BF1               	decfsz	??_isr,f
  1645  0670  2E6E               	goto	u68_27
  1646  0671  2E72               	nop2
  1647  0672  2E73               	nop2
  1648  0673                     i1l836:
  1649                           
  1650                           ;lab10canvas.c: 315:     OSCCONbits.IRCF = 0b100;
  1651  0673  01F8               	clrf	_centinela
  1652                           
  1653                           ;lab10canvas.c: 316:     OSCCONbits.SCS = 1;
  1654  0674  2EC9               	goto	i1l72
  1655  0675                     i1l838:
  1656                           
  1657                           ;lab10canvas.c: 319:     ANSEL = 0;
  1658  0675  120A  118A  26D2  120A  118A  	fcall	_nuevocaracter
  1659  067A                     i1l840:
  1660                           
  1661                           ;lab10canvas.c: 321:     TRISB = 0;;lab10canvas.c: 322:     PORTA = 0;
  1662  067A  1283               	bcf	3,5	;RP0=0, select bank0
  1663  067B  1303               	bcf	3,6	;RP1=0, select bank0
  1664  067C  1E8C               	btfss	12,5	;volatile
  1665  067D  2E7F               	goto	u11_21
  1666  067E  2E80               	goto	u11_20
  1667  067F                     u11_21:
  1668  067F  2E86               	goto	i1l844
  1669  0680                     u11_20:
  1670  0680                     i1l842:
  1671                           
  1672                           ;lab10canvas.c: 323:     PORTB = 0;
  1673  0680  081A               	movf	26,w	;volatile
  1674  0681  0086               	movwf	6	;volatile
  1675                           
  1676                           ;lab10canvas.c: 324: 
  1677  0682  30FF               	movlw	255
  1678  0683  00F1               	movwf	??_isr
  1679  0684  0871               	movf	??_isr,w
  1680  0685  00F8               	movwf	_centinela
  1681  0686                     i1l844:
  1682                           
  1683                           ;lab10canvas.c: 327:     BAUDCTLbits.BRG16 = 1;
  1684  0686  0878               	movf	_centinela,w
  1685  0687  1903               	btfsc	3,2
  1686  0688  2E8A               	goto	u12_21
  1687  0689  2E8B               	goto	u12_20
  1688  068A                     u12_21:
  1689  068A  2E7A               	goto	i1l840
  1690  068B                     u12_20:
  1691  068B                     i1l846:
  1692                           
  1693                           ;lab10canvas.c: 329:     SPBRGH = 0;
  1694  068B  30F9               	movlw	249
  1695  068C  00F1               	movwf	??_isr
  1696  068D                     u69_27:
  1697  068D  2E8E               	nop2
  1698  068E  0BF1               	decfsz	??_isr,f
  1699  068F  2E8D               	goto	u69_27
  1700  0690  2E91               	nop2
  1701  0691  2E92               	nop2
  1702  0692                     i1l848:
  1703                           
  1704                           ;lab10canvas.c: 330:     RCSTAbits.SPEN = 1;
  1705  0692  1283               	bcf	3,5	;RP0=0, select bank0
  1706  0693  1303               	bcf	3,6	;RP1=0, select bank0
  1707  0694  1E0C               	btfss	12,4	;volatile
  1708  0695  2E97               	goto	u13_21
  1709  0696  2E98               	goto	u13_20
  1710  0697                     u13_21:
  1711  0697  2E9A               	goto	i1l70
  1712  0698                     u13_20:
  1713  0698                     i1l850:
  1714                           
  1715                           ;lab10canvas.c: 331:     RCSTAbits.RX9 = 0;
  1716  0698  300D               	movlw	13
  1717  0699  0099               	movwf	25	;volatile
  1718  069A                     i1l70:
  1719                           
  1720                           ;lab10canvas.c: 332:     RCSTAbits.CREN = 1;
  1721  069A  30F9               	movlw	249
  1722  069B  00F1               	movwf	??_isr
  1723  069C                     u70_27:
  1724  069C  2E9D               	nop2
  1725  069D  0BF1               	decfsz	??_isr,f
  1726  069E  2E9C               	goto	u70_27
  1727  069F  2EA0               	nop2
  1728  06A0  2EA1               	nop2
  1729  06A1                     i1l852:
  1730                           
  1731                           ;lab10canvas.c: 333:     TXSTAbits.TXEN = 1;
  1732  06A1  1283               	bcf	3,5	;RP0=0, select bank0
  1733  06A2  1303               	bcf	3,6	;RP1=0, select bank0
  1734  06A3  1E0C               	btfss	12,4	;volatile
  1735  06A4  2EA6               	goto	u14_21
  1736  06A5  2EA7               	goto	u14_20
  1737  06A6                     u14_21:
  1738  06A6  2EA9               	goto	i1l71
  1739  06A7                     u14_20:
  1740  06A7                     i1l854:
  1741                           
  1742                           ;lab10canvas.c: 334: 
  1743  06A7  300D               	movlw	13
  1744  06A8  0099               	movwf	25	;volatile
  1745  06A9                     i1l71:
  1746                           
  1747                           ;lab10canvas.c: 335:     PIR1bits.RCIF = 0;
  1748  06A9  30F9               	movlw	249
  1749  06AA  00F1               	movwf	??_isr
  1750  06AB                     u71_27:
  1751  06AB  2EAC               	nop2
  1752  06AC  0BF1               	decfsz	??_isr,f
  1753  06AD  2EAB               	goto	u71_27
  1754  06AE  2EAF               	nop2
  1755  06AF  2EB0               	nop2
  1756  06B0                     i1l856:
  1757                           
  1758                           ;lab10canvas.c: 336:     PIE1bits.RCIE = 1;
  1759  06B0  120A  118A  2291  120A  118A  	fcall	i1_menu
  1760  06B5  2E73               	goto	i1l836
  1761  06B6                     i1l862:
  1762  06B6  081A               	movf	26,w	;volatile
  1763  06B7  00F1               	movwf	??_isr
  1764  06B8  01F2               	clrf	??_isr+1
  1765                           
  1766                           ; Switch on 2 bytes has been partitioned into a top level switch of size 1, and 1 sub-sw
      +                          itches
  1767                           ; Switch size 1, requested type "simple"
  1768                           ; Number of cases is 1, Range of values is 0 to 0
  1769                           ; switch strategies available:
  1770                           ; Name         Instructions Cycles
  1771                           ; simple_byte            4     3 (average)
  1772                           ; direct_byte           11     8 (fixed)
  1773                           ; jumptable            260     6 (fixed)
  1774                           ;	Chosen strategy is simple_byte
  1775  06B9  0872               	movf	??_isr+1,w
  1776  06BA  3A00               	xorlw	0	; case 0
  1777  06BB  1903               	skipnz
  1778  06BC  2EBE               	goto	i1l938
  1779  06BD  2EC9               	goto	i1l72
  1780  06BE                     i1l938:
  1781                           
  1782                           ; Switch size 1, requested type "simple"
  1783                           ; Number of cases is 3, Range of values is 49 to 51
  1784                           ; switch strategies available:
  1785                           ; Name         Instructions Cycles
  1786                           ; simple_byte           10     6 (average)
  1787                           ; direct_byte           20    11 (fixed)
  1788                           ; jumptable            263     9 (fixed)
  1789                           ;	Chosen strategy is simple_byte
  1790  06BE  0871               	movf	??_isr,w
  1791  06BF  3A31               	xorlw	49	; case 49
  1792  06C0  1903               	skipnz
  1793  06C1  2E12               	goto	i1l806
  1794  06C2  3A03               	xorlw	3	; case 50
  1795  06C3  1903               	skipnz
  1796  06C4  2E2C               	goto	i1l814
  1797  06C5  3A01               	xorlw	1	; case 51
  1798  06C6  1903               	skipnz
  1799  06C7  2E75               	goto	i1l838
  1800  06C8  2EC9               	goto	i1l72
  1801  06C9                     i1l72:
  1802  06C9  0875               	movf	??_isr+4,w
  1803  06CA  008A               	movwf	10
  1804  06CB  0874               	movf	??_isr+3,w
  1805  06CC  0084               	movwf	4
  1806  06CD  0E73               	swapf	??_isr+2,w
  1807  06CE  0083               	movwf	3
  1808  06CF  0EFE               	swapf	btemp,f
  1809  06D0  0E7E               	swapf	btemp,w
  1810  06D1  0009               	retfie
  1811  06D2                     __end_of_isr:
  1812                           
  1813                           	psect	intentry
  1814  0004                     __pintentry:	
  1815                           ;incstack = 0
  1816                           ; Regs used in _isr: [wreg-fsr0h+status,2+status,0+pclath+cstack]
  1817                           
  1818  0004                     interrupt_function:
  1819  007E                     saved_w	set	btemp
  1820  0004  00FE               	movwf	btemp
  1821  0005  0E03               	swapf	3,w
  1822  0006  00F3               	movwf	??_isr+2
  1823  0007  0804               	movf	4,w
  1824  0008  00F4               	movwf	??_isr+3
  1825  0009  080A               	movf	10,w
  1826  000A  00F5               	movwf	??_isr+4
  1827  000B  120A  118A  2E0B   	ljmp	_isr
  1828                           
  1829                           	psect	text3
  1830  0291                     __ptext3:	
  1831 ;; *************** function i1_menu *****************
  1832 ;; Defined at:
  1833 ;;		line 132 in file "lab10canvas.c"
  1834 ;; Parameters:    Size  Location     Type
  1835 ;;		None
  1836 ;; Auto vars:     Size  Location     Type
  1837 ;;		None
  1838 ;; Return value:  Size  Location     Type
  1839 ;;                  1    wreg      void 
  1840 ;; Registers used:
  1841 ;;		wreg
  1842 ;; Tracked objects:
  1843 ;;		On entry : 0/0
  1844 ;;		On exit  : 0/0
  1845 ;;		Unchanged: 0/0
  1846 ;; Data sizes:     COMMON   BANK0   BANK1   BANK3   BANK2
  1847 ;;      Params:         0       0       0       0       0
  1848 ;;      Locals:         0       0       0       0       0
  1849 ;;      Temps:          1       0       0       0       0
  1850 ;;      Totals:         1       0       0       0       0
  1851 ;;Total ram usage:        1 bytes
  1852 ;; Hardware stack levels used:    1
  1853 ;; This function calls:
  1854 ;;		Nothing
  1855 ;; This function is called by:
  1856 ;;		_isr
  1857 ;; This function uses a non-reentrant model
  1858 ;;
  1859                           
  1860                           
  1861                           ;psect for function i1_menu
  1862  0291                     i1_menu:
  1863  0291                     i1l798:	
  1864                           ;incstack = 0
  1865                           ; Regs used in i1_menu: [wreg]
  1866                           
  1867                           
  1868                           ;lab10canvas.c: 133:      TXREG = 99;
  1869  0291  1283               	bcf	3,5	;RP0=0, select bank0
  1870  0292  1303               	bcf	3,6	;RP1=0, select bank0
  1871  0293  1E0C               	btfss	12,4	;volatile
  1872  0294  2A96               	goto	u4_21
  1873  0295  2A97               	goto	u4_20
  1874  0296                     u4_21:
  1875  0296  2D0B               	goto	i1l50
  1876  0297                     u4_20:
  1877  0297                     i1l800:
  1878                           
  1879                           ;lab10canvas.c: 134:      TXREG = 117;
  1880  0297  3051               	movlw	81
  1881  0298  0099               	movwf	25	;volatile
  1882                           
  1883                           ;lab10canvas.c: 135:      _delay((unsigned long)((5)*(1000000/4000.0)));
  1884  0299  3075               	movlw	117
  1885  029A  0099               	movwf	25	;volatile
  1886                           
  1887                           ;lab10canvas.c: 136:      TXREG = 116;
  1888  029B  30F9               	movlw	249
  1889  029C  00F0               	movwf	??i1_menu
  1890  029D                     u72_27:
  1891  029D  2A9E               	nop2
  1892  029E  0BF0               	decfsz	??i1_menu,f
  1893  029F  2A9D               	goto	u72_27
  1894  02A0  2AA1               	nop2
  1895  02A1  2AA2               	nop2
  1896                           
  1897                           ;lab10canvas.c: 137:      TXREG = 97;
  1898  02A2  3065               	movlw	101
  1899  02A3  1283               	bcf	3,5	;RP0=0, select bank0
  1900  02A4  1303               	bcf	3,6	;RP1=0, select bank0
  1901  02A5  0099               	movwf	25	;volatile
  1902                           
  1903                           ;lab10canvas.c: 138:      _delay((unsigned long)((5)*(1000000/4000.0)));
  1904  02A6  3020               	movlw	32
  1905  02A7  0099               	movwf	25	;volatile
  1906                           
  1907                           ;lab10canvas.c: 139:      TXREG = 114;
  1908  02A8  30F9               	movlw	249
  1909  02A9  00F0               	movwf	??i1_menu
  1910  02AA                     u73_27:
  1911  02AA  2AAB               	nop2
  1912  02AB  0BF0               	decfsz	??i1_menu,f
  1913  02AC  2AAA               	goto	u73_27
  1914  02AD  2AAE               	nop2
  1915  02AE  2AAF               	nop2
  1916                           
  1917                           ;lab10canvas.c: 140:      TXREG = 63;
  1918  02AF  3061               	movlw	97
  1919  02B0  1283               	bcf	3,5	;RP0=0, select bank0
  1920  02B1  1303               	bcf	3,6	;RP1=0, select bank0
  1921  02B2  0099               	movwf	25	;volatile
  1922                           
  1923                           ;lab10canvas.c: 141:      _delay((unsigned long)((5)*(1000000/4000.0)));
  1924  02B3  3063               	movlw	99
  1925  02B4  0099               	movwf	25	;volatile
  1926                           
  1927                           ;lab10canvas.c: 142:      TXREG = 13;
  1928  02B5  30F9               	movlw	249
  1929  02B6  00F0               	movwf	??i1_menu
  1930  02B7                     u74_27:
  1931  02B7  2AB8               	nop2
  1932  02B8  0BF0               	decfsz	??i1_menu,f
  1933  02B9  2AB7               	goto	u74_27
  1934  02BA  2ABB               	nop2
  1935  02BB  2ABC               	nop2
  1936                           
  1937                           ;lab10canvas.c: 143:      TXREG = 40;
  1938  02BC  3063               	movlw	99
  1939  02BD  1283               	bcf	3,5	;RP0=0, select bank0
  1940  02BE  1303               	bcf	3,6	;RP1=0, select bank0
  1941  02BF  0099               	movwf	25	;volatile
  1942                           
  1943                           ;lab10canvas.c: 144:      _delay((unsigned long)((5)*(1000000/4000.0)));
  1944  02C0  3069               	movlw	105
  1945  02C1  0099               	movwf	25	;volatile
  1946                           
  1947                           ;lab10canvas.c: 145:      TXREG = 49;
  1948  02C2  30F9               	movlw	249
  1949  02C3  00F0               	movwf	??i1_menu
  1950  02C4                     u75_27:
  1951  02C4  2AC5               	nop2
  1952  02C5  0BF0               	decfsz	??i1_menu,f
  1953  02C6  2AC4               	goto	u75_27
  1954  02C7  2AC8               	nop2
  1955  02C8  2AC9               	nop2
  1956                           
  1957                           ;lab10canvas.c: 146:      TXREG = 41;
  1958  02C9  306F               	movlw	111
  1959  02CA  1283               	bcf	3,5	;RP0=0, select bank0
  1960  02CB  1303               	bcf	3,6	;RP1=0, select bank0
  1961  02CC  0099               	movwf	25	;volatile
  1962                           
  1963                           ;lab10canvas.c: 147:      _delay((unsigned long)((5)*(1000000/4000.0)));
  1964  02CD  306E               	movlw	110
  1965  02CE  0099               	movwf	25	;volatile
  1966                           
  1967                           ;lab10canvas.c: 148:      TXREG = 32;
  1968  02CF  30F9               	movlw	249
  1969  02D0  00F0               	movwf	??i1_menu
  1970  02D1                     u76_27:
  1971  02D1  2AD2               	nop2
  1972  02D2  0BF0               	decfsz	??i1_menu,f
  1973  02D3  2AD1               	goto	u76_27
  1974  02D4  2AD5               	nop2
  1975  02D5  2AD6               	nop2
  1976                           
  1977                           ;lab10canvas.c: 149:      TXREG = 68;
  1978  02D6  3020               	movlw	32
  1979  02D7  1283               	bcf	3,5	;RP0=0, select bank0
  1980  02D8  1303               	bcf	3,6	;RP1=0, select bank0
  1981  02D9  0099               	movwf	25	;volatile
  1982                           
  1983                           ;lab10canvas.c: 150:      _delay((unsigned long)((5)*(1000000/4000.0)));
  1984  02DA  3064               	movlw	100
  1985  02DB  0099               	movwf	25	;volatile
  1986                           
  1987                           ;lab10canvas.c: 151:      TXREG = 101;
  1988  02DC  30F9               	movlw	249
  1989  02DD  00F0               	movwf	??i1_menu
  1990  02DE                     u77_27:
  1991  02DE  2ADF               	nop2
  1992  02DF  0BF0               	decfsz	??i1_menu,f
  1993  02E0  2ADE               	goto	u77_27
  1994  02E1  2AE2               	nop2
  1995  02E2  2AE3               	nop2
  1996                           
  1997                           ;lab10canvas.c: 152:      TXREG = 115;
  1998  02E3  3065               	movlw	101
  1999  02E4  1283               	bcf	3,5	;RP0=0, select bank0
  2000  02E5  1303               	bcf	3,6	;RP1=0, select bank0
  2001  02E6  0099               	movwf	25	;volatile
  2002                           
  2003                           ;lab10canvas.c: 153:      _delay((unsigned long)((5)*(1000000/4000.0)));
  2004  02E7  3073               	movlw	115
  2005  02E8  0099               	movwf	25	;volatile
  2006                           
  2007                           ;lab10canvas.c: 154:      TXREG = 112;
  2008  02E9  30F9               	movlw	249
  2009  02EA  00F0               	movwf	??i1_menu
  2010  02EB                     u78_27:
  2011  02EB  2AEC               	nop2
  2012  02EC  0BF0               	decfsz	??i1_menu,f
  2013  02ED  2AEB               	goto	u78_27
  2014  02EE  2AEF               	nop2
  2015  02EF  2AF0               	nop2
  2016                           
  2017                           ;lab10canvas.c: 155:      TXREG = 108;
  2018  02F0  3065               	movlw	101
  2019  02F1  1283               	bcf	3,5	;RP0=0, select bank0
  2020  02F2  1303               	bcf	3,6	;RP1=0, select bank0
  2021  02F3  0099               	movwf	25	;volatile
  2022                           
  2023                           ;lab10canvas.c: 156:      _delay((unsigned long)((5)*(1000000/4000.0)));
  2024  02F4  3061               	movlw	97
  2025  02F5  0099               	movwf	25	;volatile
  2026                           
  2027                           ;lab10canvas.c: 157:      TXREG = 101;
  2028  02F6  30F9               	movlw	249
  2029  02F7  00F0               	movwf	??i1_menu
  2030  02F8                     u79_27:
  2031  02F8  2AF9               	nop2
  2032  02F9  0BF0               	decfsz	??i1_menu,f
  2033  02FA  2AF8               	goto	u79_27
  2034  02FB  2AFC               	nop2
  2035  02FC  2AFD               	nop2
  2036                           
  2037                           ;lab10canvas.c: 158:      TXREG = 103;
  2038  02FD  3020               	movlw	32
  2039  02FE  1283               	bcf	3,5	;RP0=0, select bank0
  2040  02FF  1303               	bcf	3,6	;RP1=0, select bank0
  2041  0300  0099               	movwf	25	;volatile
  2042                           
  2043                           ;lab10canvas.c: 159:      _delay((unsigned long)((5)*(1000000/4000.0)));
  2044  0301  3065               	movlw	101
  2045  0302  0099               	movwf	25	;volatile
  2046                           
  2047                           ;lab10canvas.c: 160:      TXREG = 97;
  2048  0303  30F9               	movlw	249
  2049  0304  00F0               	movwf	??i1_menu
  2050  0305                     u80_27:
  2051  0305  2B06               	nop2
  2052  0306  0BF0               	decfsz	??i1_menu,f
  2053  0307  2B05               	goto	u80_27
  2054  0308  2B09               	nop2
  2055  0309  2B0A               	nop2
  2056                           
  2057                           ;lab10canvas.c: 161:      TXREG = 114;
  2058  030A  306A               	movlw	106
  2059  030B  1283               	bcf	3,5	;RP0=0, select bank0
  2060  030C  1303               	bcf	3,6	;RP1=0, select bank0
  2061  030D  0099               	movwf	25	;volatile
  2062                           
  2063                           ;lab10canvas.c: 162:      _delay((unsigned long)((5)*(1000000/4000.0)));
  2064  030E  3065               	movlw	101
  2065  030F  0099               	movwf	25	;volatile
  2066                           
  2067                           ;lab10canvas.c: 163:      TXREG = 32;
  2068  0310  30F9               	movlw	249
  2069  0311  00F0               	movwf	??i1_menu
  2070  0312                     u81_27:
  2071  0312  2B13               	nop2
  2072  0313  0BF0               	decfsz	??i1_menu,f
  2073  0314  2B12               	goto	u81_27
  2074  0315  2B16               	nop2
  2075  0316  2B17               	nop2
  2076                           
  2077                           ;lab10canvas.c: 164:      TXREG = 99;
  2078  0317  3063               	movlw	99
  2079  0318  1283               	bcf	3,5	;RP0=0, select bank0
  2080  0319  1303               	bcf	3,6	;RP1=0, select bank0
  2081  031A  0099               	movwf	25	;volatile
  2082                           
  2083                           ;lab10canvas.c: 165:      _delay((unsigned long)((5)*(1000000/4000.0)));
  2084  031B  3075               	movlw	117
  2085  031C  0099               	movwf	25	;volatile
  2086                           
  2087                           ;lab10canvas.c: 166:      TXREG = 97;
  2088  031D  30F9               	movlw	249
  2089  031E  00F0               	movwf	??i1_menu
  2090  031F                     u82_27:
  2091  031F  2B20               	nop2
  2092  0320  0BF0               	decfsz	??i1_menu,f
  2093  0321  2B1F               	goto	u82_27
  2094  0322  2B23               	nop2
  2095  0323  2B24               	nop2
  2096                           
  2097                           ;lab10canvas.c: 167:      TXREG = 100;
  2098  0324  3074               	movlw	116
  2099  0325  1283               	bcf	3,5	;RP0=0, select bank0
  2100  0326  1303               	bcf	3,6	;RP1=0, select bank0
  2101  0327  0099               	movwf	25	;volatile
  2102                           
  2103                           ;lab10canvas.c: 168:      _delay((unsigned long)((5)*(1000000/4000.0)));
  2104  0328  3061               	movlw	97
  2105  0329  0099               	movwf	25	;volatile
  2106                           
  2107                           ;lab10canvas.c: 169:      TXREG = 101;
  2108  032A  30F9               	movlw	249
  2109  032B  00F0               	movwf	??i1_menu
  2110  032C                     u83_27:
  2111  032C  2B2D               	nop2
  2112  032D  0BF0               	decfsz	??i1_menu,f
  2113  032E  2B2C               	goto	u83_27
  2114  032F  2B30               	nop2
  2115  0330  2B31               	nop2
  2116                           
  2117                           ;lab10canvas.c: 170:      TXREG = 110;
  2118  0331  3072               	movlw	114
  2119  0332  1283               	bcf	3,5	;RP0=0, select bank0
  2120  0333  1303               	bcf	3,6	;RP1=0, select bank0
  2121  0334  0099               	movwf	25	;volatile
  2122                           
  2123                           ;lab10canvas.c: 171:      _delay((unsigned long)((5)*(1000000/4000.0)));
  2124  0335  303F               	movlw	63
  2125  0336  0099               	movwf	25	;volatile
  2126                           
  2127                           ;lab10canvas.c: 172:      TXREG = 97;
  2128  0337  30F9               	movlw	249
  2129  0338  00F0               	movwf	??i1_menu
  2130  0339                     u84_27:
  2131  0339  2B3A               	nop2
  2132  033A  0BF0               	decfsz	??i1_menu,f
  2133  033B  2B39               	goto	u84_27
  2134  033C  2B3D               	nop2
  2135  033D  2B3E               	nop2
  2136                           
  2137                           ;lab10canvas.c: 173:      TXREG = 32;
  2138  033E  300D               	movlw	13
  2139  033F  1283               	bcf	3,5	;RP0=0, select bank0
  2140  0340  1303               	bcf	3,6	;RP1=0, select bank0
  2141  0341  0099               	movwf	25	;volatile
  2142                           
  2143                           ;lab10canvas.c: 174:      _delay((unsigned long)((5)*(1000000/4000.0)));
  2144  0342  3028               	movlw	40
  2145  0343  0099               	movwf	25	;volatile
  2146                           
  2147                           ;lab10canvas.c: 175:      TXREG = 100;
  2148  0344  30F9               	movlw	249
  2149  0345  00F0               	movwf	??i1_menu
  2150  0346                     u85_27:
  2151  0346  2B47               	nop2
  2152  0347  0BF0               	decfsz	??i1_menu,f
  2153  0348  2B46               	goto	u85_27
  2154  0349  2B4A               	nop2
  2155  034A  2B4B               	nop2
  2156                           
  2157                           ;lab10canvas.c: 176:      TXREG = 101;
  2158  034B  3031               	movlw	49
  2159  034C  1283               	bcf	3,5	;RP0=0, select bank0
  2160  034D  1303               	bcf	3,6	;RP1=0, select bank0
  2161  034E  0099               	movwf	25	;volatile
  2162                           
  2163                           ;lab10canvas.c: 177:      _delay((unsigned long)((5)*(1000000/4000.0)));
  2164  034F  3029               	movlw	41
  2165  0350  0099               	movwf	25	;volatile
  2166                           
  2167                           ;lab10canvas.c: 178:      TXREG = 32;
  2168  0351  30F9               	movlw	249
  2169  0352  00F0               	movwf	??i1_menu
  2170  0353                     u86_27:
  2171  0353  2B54               	nop2
  2172  0354  0BF0               	decfsz	??i1_menu,f
  2173  0355  2B53               	goto	u86_27
  2174  0356  2B57               	nop2
  2175  0357  2B58               	nop2
  2176                           
  2177                           ;lab10canvas.c: 179:      TXREG = 99;
  2178  0358  3020               	movlw	32
  2179  0359  1283               	bcf	3,5	;RP0=0, select bank0
  2180  035A  1303               	bcf	3,6	;RP1=0, select bank0
  2181  035B  0099               	movwf	25	;volatile
  2182                           
  2183                           ;lab10canvas.c: 180:      _delay((unsigned long)((5)*(1000000/4000.0)));
  2184  035C  3044               	movlw	68
  2185  035D  0099               	movwf	25	;volatile
  2186                           
  2187                           ;lab10canvas.c: 181:      TXREG = 97;
  2188  035E  30F9               	movlw	249
  2189  035F  00F0               	movwf	??i1_menu
  2190  0360                     u87_27:
  2191  0360  2B61               	nop2
  2192  0361  0BF0               	decfsz	??i1_menu,f
  2193  0362  2B60               	goto	u87_27
  2194  0363  2B64               	nop2
  2195  0364  2B65               	nop2
  2196                           
  2197                           ;lab10canvas.c: 182:      TXREG = 114;
  2198  0365  3065               	movlw	101
  2199  0366  1283               	bcf	3,5	;RP0=0, select bank0
  2200  0367  1303               	bcf	3,6	;RP1=0, select bank0
  2201  0368  0099               	movwf	25	;volatile
  2202                           
  2203                           ;lab10canvas.c: 183:      _delay((unsigned long)((5)*(1000000/4000.0)));
  2204  0369  3073               	movlw	115
  2205  036A  0099               	movwf	25	;volatile
  2206                           
  2207                           ;lab10canvas.c: 184:      TXREG = 97;
  2208  036B  30F9               	movlw	249
  2209  036C  00F0               	movwf	??i1_menu
  2210  036D                     u88_27:
  2211  036D  2B6E               	nop2
  2212  036E  0BF0               	decfsz	??i1_menu,f
  2213  036F  2B6D               	goto	u88_27
  2214  0370  2B71               	nop2
  2215  0371  2B72               	nop2
  2216                           
  2217                           ;lab10canvas.c: 185:      TXREG = 99;
  2218  0372  3070               	movlw	112
  2219  0373  1283               	bcf	3,5	;RP0=0, select bank0
  2220  0374  1303               	bcf	3,6	;RP1=0, select bank0
  2221  0375  0099               	movwf	25	;volatile
  2222                           
  2223                           ;lab10canvas.c: 186:      _delay((unsigned long)((5)*(1000000/4000.0)));
  2224  0376  306C               	movlw	108
  2225  0377  0099               	movwf	25	;volatile
  2226                           
  2227                           ;lab10canvas.c: 187:      TXREG = 116;
  2228  0378  30F9               	movlw	249
  2229  0379  00F0               	movwf	??i1_menu
  2230  037A                     u89_27:
  2231  037A  2B7B               	nop2
  2232  037B  0BF0               	decfsz	??i1_menu,f
  2233  037C  2B7A               	goto	u89_27
  2234  037D  2B7E               	nop2
  2235  037E  2B7F               	nop2
  2236                           
  2237                           ;lab10canvas.c: 188:      TXREG = 101;
  2238  037F  3065               	movlw	101
  2239  0380  1283               	bcf	3,5	;RP0=0, select bank0
  2240  0381  1303               	bcf	3,6	;RP1=0, select bank0
  2241  0382  0099               	movwf	25	;volatile
  2242                           
  2243                           ;lab10canvas.c: 189:      _delay((unsigned long)((5)*(1000000/4000.0)));
  2244  0383  3067               	movlw	103
  2245  0384  0099               	movwf	25	;volatile
  2246                           
  2247                           ;lab10canvas.c: 190:      TXREG = 114;
  2248  0385  30F9               	movlw	249
  2249  0386  00F0               	movwf	??i1_menu
  2250  0387                     u90_27:
  2251  0387  2B88               	nop2
  2252  0388  0BF0               	decfsz	??i1_menu,f
  2253  0389  2B87               	goto	u90_27
  2254  038A  2B8B               	nop2
  2255  038B  2B8C               	nop2
  2256                           
  2257                           ;lab10canvas.c: 191:      TXREG = 101;
  2258  038C  3061               	movlw	97
  2259  038D  1283               	bcf	3,5	;RP0=0, select bank0
  2260  038E  1303               	bcf	3,6	;RP1=0, select bank0
  2261  038F  0099               	movwf	25	;volatile
  2262                           
  2263                           ;lab10canvas.c: 192:      _delay((unsigned long)((5)*(1000000/4000.0)));
  2264  0390  3072               	movlw	114
  2265  0391  0099               	movwf	25	;volatile
  2266                           
  2267                           ;lab10canvas.c: 193:      TXREG = 115;
  2268  0392  30F9               	movlw	249
  2269  0393  00F0               	movwf	??i1_menu
  2270  0394                     u91_27:
  2271  0394  2B95               	nop2
  2272  0395  0BF0               	decfsz	??i1_menu,f
  2273  0396  2B94               	goto	u91_27
  2274  0397  2B98               	nop2
  2275  0398  2B99               	nop2
  2276                           
  2277                           ;lab10canvas.c: 194:      TXREG = 13;
  2278  0399  3020               	movlw	32
  2279  039A  1283               	bcf	3,5	;RP0=0, select bank0
  2280  039B  1303               	bcf	3,6	;RP1=0, select bank0
  2281  039C  0099               	movwf	25	;volatile
  2282                           
  2283                           ;lab10canvas.c: 195:      _delay((unsigned long)((5)*(1000000/4000.0)));
  2284  039D  3063               	movlw	99
  2285  039E  0099               	movwf	25	;volatile
  2286                           
  2287                           ;lab10canvas.c: 196:      TXREG = 40;
  2288  039F  30F9               	movlw	249
  2289  03A0  00F0               	movwf	??i1_menu
  2290  03A1                     u92_27:
  2291  03A1  2BA2               	nop2
  2292  03A2  0BF0               	decfsz	??i1_menu,f
  2293  03A3  2BA1               	goto	u92_27
  2294  03A4  2BA5               	nop2
  2295  03A5  2BA6               	nop2
  2296                           
  2297                           ;lab10canvas.c: 197:      TXREG = 50;
  2298  03A6  3061               	movlw	97
  2299  03A7  1283               	bcf	3,5	;RP0=0, select bank0
  2300  03A8  1303               	bcf	3,6	;RP1=0, select bank0
  2301  03A9  0099               	movwf	25	;volatile
  2302                           
  2303                           ;lab10canvas.c: 198:      _delay((unsigned long)((5)*(1000000/4000.0)));
  2304  03AA  3064               	movlw	100
  2305  03AB  0099               	movwf	25	;volatile
  2306                           
  2307                           ;lab10canvas.c: 199:      TXREG = 41;
  2308  03AC  30F9               	movlw	249
  2309  03AD  00F0               	movwf	??i1_menu
  2310  03AE                     u93_27:
  2311  03AE  2BAF               	nop2
  2312  03AF  0BF0               	decfsz	??i1_menu,f
  2313  03B0  2BAE               	goto	u93_27
  2314  03B1  2BB2               	nop2
  2315  03B2  2BB3               	nop2
  2316                           
  2317                           ;lab10canvas.c: 200:      TXREG = 32;
  2318  03B3  3065               	movlw	101
  2319  03B4  1283               	bcf	3,5	;RP0=0, select bank0
  2320  03B5  1303               	bcf	3,6	;RP1=0, select bank0
  2321  03B6  0099               	movwf	25	;volatile
  2322                           
  2323                           ;lab10canvas.c: 201:      _delay((unsigned long)((5)*(1000000/4000.0)));
  2324  03B7  306E               	movlw	110
  2325  03B8  0099               	movwf	25	;volatile
  2326                           
  2327                           ;lab10canvas.c: 202:      TXREG = 67;
  2328  03B9  30F9               	movlw	249
  2329  03BA  00F0               	movwf	??i1_menu
  2330  03BB                     u94_27:
  2331  03BB  2BBC               	nop2
  2332  03BC  0BF0               	decfsz	??i1_menu,f
  2333  03BD  2BBB               	goto	u94_27
  2334  03BE  2BBF               	nop2
  2335  03BF  2BC0               	nop2
  2336                           
  2337                           ;lab10canvas.c: 203:      TXREG = 97;
  2338  03C0  3061               	movlw	97
  2339  03C1  1283               	bcf	3,5	;RP0=0, select bank0
  2340  03C2  1303               	bcf	3,6	;RP1=0, select bank0
  2341  03C3  0099               	movwf	25	;volatile
  2342                           
  2343                           ;lab10canvas.c: 204:      _delay((unsigned long)((5)*(1000000/4000.0)));
  2344  03C4  3020               	movlw	32
  2345  03C5  0099               	movwf	25	;volatile
  2346                           
  2347                           ;lab10canvas.c: 205:      TXREG = 109;
  2348  03C6  30F9               	movlw	249
  2349  03C7  00F0               	movwf	??i1_menu
  2350  03C8                     u95_27:
  2351  03C8  2BC9               	nop2
  2352  03C9  0BF0               	decfsz	??i1_menu,f
  2353  03CA  2BC8               	goto	u95_27
  2354  03CB  2BCC               	nop2
  2355  03CC  2BCD               	nop2
  2356                           
  2357                           ;lab10canvas.c: 206:      TXREG = 98;
  2358  03CD  3064               	movlw	100
  2359  03CE  1283               	bcf	3,5	;RP0=0, select bank0
  2360  03CF  1303               	bcf	3,6	;RP1=0, select bank0
  2361  03D0  0099               	movwf	25	;volatile
  2362                           
  2363                           ;lab10canvas.c: 207:      _delay((unsigned long)((5)*(1000000/4000.0)));
  2364  03D1  3065               	movlw	101
  2365  03D2  0099               	movwf	25	;volatile
  2366                           
  2367                           ;lab10canvas.c: 208:      TXREG = 105;
  2368  03D3  30F9               	movlw	249
  2369  03D4  00F0               	movwf	??i1_menu
  2370  03D5                     u96_27:
  2371  03D5  2BD6               	nop2
  2372  03D6  0BF0               	decfsz	??i1_menu,f
  2373  03D7  2BD5               	goto	u96_27
  2374  03D8  2BD9               	nop2
  2375  03D9  2BDA               	nop2
  2376                           
  2377                           ;lab10canvas.c: 209:      TXREG = 97;
  2378  03DA  3020               	movlw	32
  2379  03DB  1283               	bcf	3,5	;RP0=0, select bank0
  2380  03DC  1303               	bcf	3,6	;RP1=0, select bank0
  2381  03DD  0099               	movwf	25	;volatile
  2382                           
  2383                           ;lab10canvas.c: 210:      _delay((unsigned long)((5)*(1000000/4000.0)));
  2384  03DE  3063               	movlw	99
  2385  03DF  0099               	movwf	25	;volatile
  2386                           
  2387                           ;lab10canvas.c: 211:      TXREG = 114;
  2388  03E0  30F9               	movlw	249
  2389  03E1  00F0               	movwf	??i1_menu
  2390  03E2                     u97_27:
  2391  03E2  2BE3               	nop2
  2392  03E3  0BF0               	decfsz	??i1_menu,f
  2393  03E4  2BE2               	goto	u97_27
  2394  03E5  2BE6               	nop2
  2395  03E6  2BE7               	nop2
  2396                           
  2397                           ;lab10canvas.c: 212:      TXREG = 32;
  2398  03E7  3061               	movlw	97
  2399  03E8  1283               	bcf	3,5	;RP0=0, select bank0
  2400  03E9  1303               	bcf	3,6	;RP1=0, select bank0
  2401  03EA  0099               	movwf	25	;volatile
  2402                           
  2403                           ;lab10canvas.c: 213:      _delay((unsigned long)((5)*(1000000/4000.0)));
  2404  03EB  3072               	movlw	114
  2405  03EC  0099               	movwf	25	;volatile
  2406                           
  2407                           ;lab10canvas.c: 214:      TXREG = 80;
  2408  03ED  30F9               	movlw	249
  2409  03EE  00F0               	movwf	??i1_menu
  2410  03EF                     u98_27:
  2411  03EF  2BF0               	nop2
  2412  03F0  0BF0               	decfsz	??i1_menu,f
  2413  03F1  2BEF               	goto	u98_27
  2414  03F2  2BF3               	nop2
  2415  03F3  2BF4               	nop2
  2416                           
  2417                           ;lab10canvas.c: 215:      TXREG = 79;
  2418  03F4  3061               	movlw	97
  2419  03F5  1283               	bcf	3,5	;RP0=0, select bank0
  2420  03F6  1303               	bcf	3,6	;RP1=0, select bank0
  2421  03F7  0099               	movwf	25	;volatile
  2422                           
  2423                           ;lab10canvas.c: 216:      _delay((unsigned long)((5)*(1000000/4000.0)));
  2424  03F8  3063               	movlw	99
  2425  03F9  0099               	movwf	25	;volatile
  2426                           
  2427                           ;lab10canvas.c: 217:      TXREG = 82;
  2428  03FA  30F9               	movlw	249
  2429  03FB  00F0               	movwf	??i1_menu
  2430  03FC                     u99_27:
  2431  03FC  2BFD               	nop2
  2432  03FD  0BF0               	decfsz	??i1_menu,f
  2433  03FE  2BFC               	goto	u99_27
  2434  03FF  2C00               	nop2
  2435  0400  2C01               	nop2
  2436                           
  2437                           ;lab10canvas.c: 218:      TXREG = 84;
  2438  0401  3074               	movlw	116
  2439  0402  1283               	bcf	3,5	;RP0=0, select bank0
  2440  0403  1303               	bcf	3,6	;RP1=0, select bank0
  2441  0404  0099               	movwf	25	;volatile
  2442                           
  2443                           ;lab10canvas.c: 219:      _delay((unsigned long)((5)*(1000000/4000.0)));
  2444  0405  3065               	movlw	101
  2445  0406  0099               	movwf	25	;volatile
  2446                           
  2447                           ;lab10canvas.c: 220:      TXREG = 65;
  2448  0407  30F9               	movlw	249
  2449  0408  00F0               	movwf	??i1_menu
  2450  0409                     u100_27:
  2451  0409  2C0A               	nop2
  2452  040A  0BF0               	decfsz	??i1_menu,f
  2453  040B  2C09               	goto	u100_27
  2454  040C  2C0D               	nop2
  2455  040D  2C0E               	nop2
  2456                           
  2457                           ;lab10canvas.c: 221:      TXREG = 13;
  2458  040E  3072               	movlw	114
  2459  040F  1283               	bcf	3,5	;RP0=0, select bank0
  2460  0410  1303               	bcf	3,6	;RP1=0, select bank0
  2461  0411  0099               	movwf	25	;volatile
  2462                           
  2463                           ;lab10canvas.c: 222:      _delay((unsigned long)((5)*(1000000/4000.0)));
  2464  0412  3065               	movlw	101
  2465  0413  0099               	movwf	25	;volatile
  2466                           
  2467                           ;lab10canvas.c: 223:      TXREG = 40;
  2468  0414  30F9               	movlw	249
  2469  0415  00F0               	movwf	??i1_menu
  2470  0416                     u101_27:
  2471  0416  2C17               	nop2
  2472  0417  0BF0               	decfsz	??i1_menu,f
  2473  0418  2C16               	goto	u101_27
  2474  0419  2C1A               	nop2
  2475  041A  2C1B               	nop2
  2476                           
  2477                           ;lab10canvas.c: 224:      TXREG = 51;
  2478  041B  3073               	movlw	115
  2479  041C  1283               	bcf	3,5	;RP0=0, select bank0
  2480  041D  1303               	bcf	3,6	;RP1=0, select bank0
  2481  041E  0099               	movwf	25	;volatile
  2482                           
  2483                           ;lab10canvas.c: 225:      _delay((unsigned long)((5)*(1000000/4000.0)));
  2484  041F  300D               	movlw	13
  2485  0420  0099               	movwf	25	;volatile
  2486                           
  2487                           ;lab10canvas.c: 226:      TXREG = 41;
  2488  0421  30F9               	movlw	249
  2489  0422  00F0               	movwf	??i1_menu
  2490  0423                     u102_27:
  2491  0423  2C24               	nop2
  2492  0424  0BF0               	decfsz	??i1_menu,f
  2493  0425  2C23               	goto	u102_27
  2494  0426  2C27               	nop2
  2495  0427  2C28               	nop2
  2496                           
  2497                           ;lab10canvas.c: 227:      TXREG = 32;
  2498  0428  3028               	movlw	40
  2499  0429  1283               	bcf	3,5	;RP0=0, select bank0
  2500  042A  1303               	bcf	3,6	;RP1=0, select bank0
  2501  042B  0099               	movwf	25	;volatile
  2502                           
  2503                           ;lab10canvas.c: 228:      _delay((unsigned long)((5)*(1000000/4000.0)));
  2504  042C  3032               	movlw	50
  2505  042D  0099               	movwf	25	;volatile
  2506                           
  2507                           ;lab10canvas.c: 229:      TXREG = 67;
  2508  042E  30F9               	movlw	249
  2509  042F  00F0               	movwf	??i1_menu
  2510  0430                     u103_27:
  2511  0430  2C31               	nop2
  2512  0431  0BF0               	decfsz	??i1_menu,f
  2513  0432  2C30               	goto	u103_27
  2514  0433  2C34               	nop2
  2515  0434  2C35               	nop2
  2516                           
  2517                           ;lab10canvas.c: 230:      TXREG = 97;
  2518  0435  3029               	movlw	41
  2519  0436  1283               	bcf	3,5	;RP0=0, select bank0
  2520  0437  1303               	bcf	3,6	;RP1=0, select bank0
  2521  0438  0099               	movwf	25	;volatile
  2522                           
  2523                           ;lab10canvas.c: 231:      _delay((unsigned long)((5)*(1000000/4000.0)));
  2524  0439  3020               	movlw	32
  2525  043A  0099               	movwf	25	;volatile
  2526                           
  2527                           ;lab10canvas.c: 232:      TXREG = 109;
  2528  043B  30F9               	movlw	249
  2529  043C  00F0               	movwf	??i1_menu
  2530  043D                     u104_27:
  2531  043D  2C3E               	nop2
  2532  043E  0BF0               	decfsz	??i1_menu,f
  2533  043F  2C3D               	goto	u104_27
  2534  0440  2C41               	nop2
  2535  0441  2C42               	nop2
  2536                           
  2537                           ;lab10canvas.c: 233:      TXREG = 98;
  2538  0442  3043               	movlw	67
  2539  0443  1283               	bcf	3,5	;RP0=0, select bank0
  2540  0444  1303               	bcf	3,6	;RP1=0, select bank0
  2541  0445  0099               	movwf	25	;volatile
  2542                           
  2543                           ;lab10canvas.c: 234:      _delay((unsigned long)((5)*(1000000/4000.0)));
  2544  0446  3061               	movlw	97
  2545  0447  0099               	movwf	25	;volatile
  2546                           
  2547                           ;lab10canvas.c: 235:      TXREG = 105;
  2548  0448  30F9               	movlw	249
  2549  0449  00F0               	movwf	??i1_menu
  2550  044A                     u105_27:
  2551  044A  2C4B               	nop2
  2552  044B  0BF0               	decfsz	??i1_menu,f
  2553  044C  2C4A               	goto	u105_27
  2554  044D  2C4E               	nop2
  2555  044E  2C4F               	nop2
  2556                           
  2557                           ;lab10canvas.c: 236:      TXREG = 97;
  2558  044F  306D               	movlw	109
  2559  0450  1283               	bcf	3,5	;RP0=0, select bank0
  2560  0451  1303               	bcf	3,6	;RP1=0, select bank0
  2561  0452  0099               	movwf	25	;volatile
  2562                           
  2563                           ;lab10canvas.c: 237:      _delay((unsigned long)((5)*(1000000/4000.0)));
  2564  0453  3062               	movlw	98
  2565  0454  0099               	movwf	25	;volatile
  2566                           
  2567                           ;lab10canvas.c: 238:      TXREG = 114;
  2568  0455  30F9               	movlw	249
  2569  0456  00F0               	movwf	??i1_menu
  2570  0457                     u106_27:
  2571  0457  2C58               	nop2
  2572  0458  0BF0               	decfsz	??i1_menu,f
  2573  0459  2C57               	goto	u106_27
  2574  045A  2C5B               	nop2
  2575  045B  2C5C               	nop2
  2576                           
  2577                           ;lab10canvas.c: 239:      TXREG = 32;
  2578  045C  3069               	movlw	105
  2579  045D  1283               	bcf	3,5	;RP0=0, select bank0
  2580  045E  1303               	bcf	3,6	;RP1=0, select bank0
  2581  045F  0099               	movwf	25	;volatile
  2582                           
  2583                           ;lab10canvas.c: 240:      _delay((unsigned long)((5)*(1000000/4000.0)));
  2584  0460  3061               	movlw	97
  2585  0461  0099               	movwf	25	;volatile
  2586                           
  2587                           ;lab10canvas.c: 241:      TXREG = 80;
  2588  0462  30F9               	movlw	249
  2589  0463  00F0               	movwf	??i1_menu
  2590  0464                     u107_27:
  2591  0464  2C65               	nop2
  2592  0465  0BF0               	decfsz	??i1_menu,f
  2593  0466  2C64               	goto	u107_27
  2594  0467  2C68               	nop2
  2595  0468  2C69               	nop2
  2596                           
  2597                           ;lab10canvas.c: 242:      TXREG = 79;
  2598  0469  3072               	movlw	114
  2599  046A  1283               	bcf	3,5	;RP0=0, select bank0
  2600  046B  1303               	bcf	3,6	;RP1=0, select bank0
  2601  046C  0099               	movwf	25	;volatile
  2602                           
  2603                           ;lab10canvas.c: 243:      _delay((unsigned long)((5)*(1000000/4000.0)));
  2604  046D  3020               	movlw	32
  2605  046E  0099               	movwf	25	;volatile
  2606                           
  2607                           ;lab10canvas.c: 244:      TXREG = 82;
  2608  046F  30F9               	movlw	249
  2609  0470  00F0               	movwf	??i1_menu
  2610  0471                     u108_27:
  2611  0471  2C72               	nop2
  2612  0472  0BF0               	decfsz	??i1_menu,f
  2613  0473  2C71               	goto	u108_27
  2614  0474  2C75               	nop2
  2615  0475  2C76               	nop2
  2616                           
  2617                           ;lab10canvas.c: 245:      TXREG = 84;
  2618  0476  3050               	movlw	80
  2619  0477  1283               	bcf	3,5	;RP0=0, select bank0
  2620  0478  1303               	bcf	3,6	;RP1=0, select bank0
  2621  0479  0099               	movwf	25	;volatile
  2622                           
  2623                           ;lab10canvas.c: 246:      _delay((unsigned long)((5)*(1000000/4000.0)));
  2624  047A  304F               	movlw	79
  2625  047B  0099               	movwf	25	;volatile
  2626                           
  2627                           ;lab10canvas.c: 247:      TXREG = 66;
  2628  047C  30F9               	movlw	249
  2629  047D  00F0               	movwf	??i1_menu
  2630  047E                     u109_27:
  2631  047E  2C7F               	nop2
  2632  047F  0BF0               	decfsz	??i1_menu,f
  2633  0480  2C7E               	goto	u109_27
  2634  0481  2C82               	nop2
  2635  0482  2C83               	nop2
  2636                           
  2637                           ;lab10canvas.c: 248:      TXREG = 13;}
  2638  0483  3052               	movlw	82
  2639  0484  1283               	bcf	3,5	;RP0=0, select bank0
  2640  0485  1303               	bcf	3,6	;RP1=0, select bank0
  2641  0486  0099               	movwf	25	;volatile
  2642                           
  2643                           ;lab10canvas.c: 249: }
  2644  0487  3054               	movlw	84
  2645  0488  0099               	movwf	25	;volatile
  2646                           
  2647                           ;lab10canvas.c: 250: 
  2648  0489  30F9               	movlw	249
  2649  048A  00F0               	movwf	??i1_menu
  2650  048B                     u110_27:
  2651  048B  2C8C               	nop2
  2652  048C  0BF0               	decfsz	??i1_menu,f
  2653  048D  2C8B               	goto	u110_27
  2654  048E  2C8F               	nop2
  2655  048F  2C90               	nop2
  2656                           
  2657                           ;lab10canvas.c: 251: void __attribute__((picinterrupt(("")))) isr(void){
  2658  0490  3041               	movlw	65
  2659  0491  1283               	bcf	3,5	;RP0=0, select bank0
  2660  0492  1303               	bcf	3,6	;RP1=0, select bank0
  2661  0493  0099               	movwf	25	;volatile
  2662                           
  2663                           ;lab10canvas.c: 252: 
  2664  0494  300D               	movlw	13
  2665  0495  0099               	movwf	25	;volatile
  2666                           
  2667                           ;lab10canvas.c: 253:     if (PIR1bits.RCIF) {
  2668  0496  30F9               	movlw	249
  2669  0497  00F0               	movwf	??i1_menu
  2670  0498                     u111_27:
  2671  0498  2C99               	nop2
  2672  0499  0BF0               	decfsz	??i1_menu,f
  2673  049A  2C98               	goto	u111_27
  2674  049B  2C9C               	nop2
  2675  049C  2C9D               	nop2
  2676                           
  2677                           ;lab10canvas.c: 254:     switch (RCREG){
  2678  049D  3028               	movlw	40
  2679  049E  1283               	bcf	3,5	;RP0=0, select bank0
  2680  049F  1303               	bcf	3,6	;RP1=0, select bank0
  2681  04A0  0099               	movwf	25	;volatile
  2682                           
  2683                           ;lab10canvas.c: 255:         case 49:
  2684  04A1  3033               	movlw	51
  2685  04A2  0099               	movwf	25	;volatile
  2686                           
  2687                           ;lab10canvas.c: 256:         caracteres();
  2688  04A3  30F9               	movlw	249
  2689  04A4  00F0               	movwf	??i1_menu
  2690  04A5                     u112_27:
  2691  04A5  2CA6               	nop2
  2692  04A6  0BF0               	decfsz	??i1_menu,f
  2693  04A7  2CA5               	goto	u112_27
  2694  04A8  2CA9               	nop2
  2695  04A9  2CAA               	nop2
  2696                           
  2697                           ;lab10canvas.c: 257:         if (PIR1bits.TXIF){
  2698  04AA  3029               	movlw	41
  2699  04AB  1283               	bcf	3,5	;RP0=0, select bank0
  2700  04AC  1303               	bcf	3,6	;RP1=0, select bank0
  2701  04AD  0099               	movwf	25	;volatile
  2702                           
  2703                           ;lab10canvas.c: 258:             TXREG = 13;
  2704  04AE  3020               	movlw	32
  2705  04AF  0099               	movwf	25	;volatile
  2706                           
  2707                           ;lab10canvas.c: 259:         }
  2708  04B0  30F9               	movlw	249
  2709  04B1  00F0               	movwf	??i1_menu
  2710  04B2                     u113_27:
  2711  04B2  2CB3               	nop2
  2712  04B3  0BF0               	decfsz	??i1_menu,f
  2713  04B4  2CB2               	goto	u113_27
  2714  04B5  2CB6               	nop2
  2715  04B6  2CB7               	nop2
  2716                           
  2717                           ;lab10canvas.c: 260:         _delay((unsigned long)((5)*(1000000/4000.0)));
  2718  04B7  3043               	movlw	67
  2719  04B8  1283               	bcf	3,5	;RP0=0, select bank0
  2720  04B9  1303               	bcf	3,6	;RP1=0, select bank0
  2721  04BA  0099               	movwf	25	;volatile
  2722                           
  2723                           ;lab10canvas.c: 261:         menu();
  2724  04BB  3061               	movlw	97
  2725  04BC  0099               	movwf	25	;volatile
  2726                           
  2727                           ;lab10canvas.c: 262:         break;
  2728  04BD  30F9               	movlw	249
  2729  04BE  00F0               	movwf	??i1_menu
  2730  04BF                     u114_27:
  2731  04BF  2CC0               	nop2
  2732  04C0  0BF0               	decfsz	??i1_menu,f
  2733  04C1  2CBF               	goto	u114_27
  2734  04C2  2CC3               	nop2
  2735  04C3  2CC4               	nop2
  2736                           
  2737                           ;lab10canvas.c: 263: 
  2738  04C4  306D               	movlw	109
  2739  04C5  1283               	bcf	3,5	;RP0=0, select bank0
  2740  04C6  1303               	bcf	3,6	;RP1=0, select bank0
  2741  04C7  0099               	movwf	25	;volatile
  2742                           
  2743                           ;lab10canvas.c: 264:         case 50:
  2744  04C8  3062               	movlw	98
  2745  04C9  0099               	movwf	25	;volatile
  2746                           
  2747                           ;lab10canvas.c: 265:         nuevocaracter();
  2748  04CA  30F9               	movlw	249
  2749  04CB  00F0               	movwf	??i1_menu
  2750  04CC                     u115_27:
  2751  04CC  2CCD               	nop2
  2752  04CD  0BF0               	decfsz	??i1_menu,f
  2753  04CE  2CCC               	goto	u115_27
  2754  04CF  2CD0               	nop2
  2755  04D0  2CD1               	nop2
  2756                           
  2757                           ;lab10canvas.c: 266:         do
  2758  04D1  3069               	movlw	105
  2759  04D2  1283               	bcf	3,5	;RP0=0, select bank0
  2760  04D3  1303               	bcf	3,6	;RP1=0, select bank0
  2761  04D4  0099               	movwf	25	;volatile
  2762                           
  2763                           ;lab10canvas.c: 267:         {
  2764  04D5  3061               	movlw	97
  2765  04D6  0099               	movwf	25	;volatile
  2766                           
  2767                           ;lab10canvas.c: 268:         if (PIR1bits.RCIF){
  2768  04D7  30F9               	movlw	249
  2769  04D8  00F0               	movwf	??i1_menu
  2770  04D9                     u116_27:
  2771  04D9  2CDA               	nop2
  2772  04DA  0BF0               	decfsz	??i1_menu,f
  2773  04DB  2CD9               	goto	u116_27
  2774  04DC  2CDD               	nop2
  2775  04DD  2CDE               	nop2
  2776                           
  2777                           ;lab10canvas.c: 269:             PORTA = RCREG;
  2778  04DE  3072               	movlw	114
  2779  04DF  1283               	bcf	3,5	;RP0=0, select bank0
  2780  04E0  1303               	bcf	3,6	;RP1=0, select bank0
  2781  04E1  0099               	movwf	25	;volatile
  2782                           
  2783                           ;lab10canvas.c: 270:             centinela = 255;
  2784  04E2  3020               	movlw	32
  2785  04E3  0099               	movwf	25	;volatile
  2786                           
  2787                           ;lab10canvas.c: 271:             }
  2788  04E4  30F9               	movlw	249
  2789  04E5  00F0               	movwf	??i1_menu
  2790  04E6                     u117_27:
  2791  04E6  2CE7               	nop2
  2792  04E7  0BF0               	decfsz	??i1_menu,f
  2793  04E8  2CE6               	goto	u117_27
  2794  04E9  2CEA               	nop2
  2795  04EA  2CEB               	nop2
  2796                           
  2797                           ;lab10canvas.c: 272: 
  2798  04EB  3050               	movlw	80
  2799  04EC  1283               	bcf	3,5	;RP0=0, select bank0
  2800  04ED  1303               	bcf	3,6	;RP1=0, select bank0
  2801  04EE  0099               	movwf	25	;volatile
  2802                           
  2803                           ;lab10canvas.c: 273:         }
  2804  04EF  304F               	movlw	79
  2805  04F0  0099               	movwf	25	;volatile
  2806                           
  2807                           ;lab10canvas.c: 274:         while (centinela == 0);
  2808  04F1  30F9               	movlw	249
  2809  04F2  00F0               	movwf	??i1_menu
  2810  04F3                     u118_27:
  2811  04F3  2CF4               	nop2
  2812  04F4  0BF0               	decfsz	??i1_menu,f
  2813  04F5  2CF3               	goto	u118_27
  2814  04F6  2CF7               	nop2
  2815  04F7  2CF8               	nop2
  2816                           
  2817                           ;lab10canvas.c: 275:             _delay((unsigned long)((5)*(1000000/4000.0)));
  2818  04F8  3052               	movlw	82
  2819  04F9  1283               	bcf	3,5	;RP0=0, select bank0
  2820  04FA  1303               	bcf	3,6	;RP1=0, select bank0
  2821  04FB  0099               	movwf	25	;volatile
  2822                           
  2823                           ;lab10canvas.c: 276:             if (PIR1bits.TXIF)
  2824  04FC  3054               	movlw	84
  2825  04FD  0099               	movwf	25	;volatile
  2826                           
  2827                           ;lab10canvas.c: 277:                 {TXREG = 13;}
  2828  04FE  30F9               	movlw	249
  2829  04FF  00F0               	movwf	??i1_menu
  2830  0500                     u119_27:
  2831  0500  2D01               	nop2
  2832  0501  0BF0               	decfsz	??i1_menu,f
  2833  0502  2D00               	goto	u119_27
  2834  0503  2D04               	nop2
  2835  0504  2D05               	nop2
  2836                           
  2837                           ;lab10canvas.c: 278:             _delay((unsigned long)((5)*(1000000/4000.0)));
  2838  0505  3042               	movlw	66
  2839  0506  1283               	bcf	3,5	;RP0=0, select bank0
  2840  0507  1303               	bcf	3,6	;RP1=0, select bank0
  2841  0508  0099               	movwf	25	;volatile
  2842                           
  2843                           ;lab10canvas.c: 279:             if (PIR1bits.TXIF)
  2844  0509  300D               	movlw	13
  2845  050A  0099               	movwf	25	;volatile
  2846  050B                     i1l50:
  2847  050B  0008               	return
  2848  050C                     __end_ofi1_menu:
  2849                           
  2850                           	psect	text4
  2851  06D2                     __ptext4:	
  2852 ;; *************** function _nuevocaracter *****************
  2853 ;; Defined at:
  2854 ;;		line 93 in file "lab10canvas.c"
  2855 ;; Parameters:    Size  Location     Type
  2856 ;;		None
  2857 ;; Auto vars:     Size  Location     Type
  2858 ;;		None
  2859 ;; Return value:  Size  Location     Type
  2860 ;;                  1    wreg      void 
  2861 ;; Registers used:
  2862 ;;		wreg
  2863 ;; Tracked objects:
  2864 ;;		On entry : 0/0
  2865 ;;		On exit  : 0/0
  2866 ;;		Unchanged: 0/0
  2867 ;; Data sizes:     COMMON   BANK0   BANK1   BANK3   BANK2
  2868 ;;      Params:         0       0       0       0       0
  2869 ;;      Locals:         0       0       0       0       0
  2870 ;;      Temps:          1       0       0       0       0
  2871 ;;      Totals:         1       0       0       0       0
  2872 ;;Total ram usage:        1 bytes
  2873 ;; Hardware stack levels used:    1
  2874 ;; This function calls:
  2875 ;;		Nothing
  2876 ;; This function is called by:
  2877 ;;		_isr
  2878 ;; This function uses a non-reentrant model
  2879 ;;
  2880                           
  2881                           
  2882                           ;psect for function _nuevocaracter
  2883  06D2                     _nuevocaracter:
  2884  06D2                     i1l790:	
  2885                           ;incstack = 0
  2886                           ; Regs used in _nuevocaracter: [wreg]
  2887                           
  2888                           
  2889                           ;lab10canvas.c: 94:      TXREG = 101;
  2890  06D2  1283               	bcf	3,5	;RP0=0, select bank0
  2891  06D3  1303               	bcf	3,6	;RP1=0, select bank0
  2892  06D4  1E0C               	btfss	12,4	;volatile
  2893  06D5  2ED7               	goto	u2_21
  2894  06D6  2ED8               	goto	u2_20
  2895  06D7                     u2_21:
  2896  06D7  2F6B               	goto	i1l46
  2897  06D8                     u2_20:
  2898  06D8                     i1l792:
  2899                           
  2900                           ;lab10canvas.c: 95:      TXREG = 114;
  2901  06D8  3049               	movlw	73
  2902  06D9  0099               	movwf	25	;volatile
  2903                           
  2904                           ;lab10canvas.c: 96:      _delay((unsigned long)((5)*(1000000/4000.0)));
  2905  06DA  306E               	movlw	110
  2906  06DB  0099               	movwf	25	;volatile
  2907                           
  2908                           ;lab10canvas.c: 97:      TXREG = 58;
  2909  06DC  30F9               	movlw	249
  2910  06DD  00F0               	movwf	??_nuevocaracter
  2911  06DE                     u120_27:
  2912  06DE  2EDF               	nop2
  2913  06DF  0BF0               	decfsz	??_nuevocaracter,f
  2914  06E0  2EDE               	goto	u120_27
  2915  06E1  2EE2               	nop2
  2916  06E2  2EE3               	nop2
  2917                           
  2918                           ;lab10canvas.c: 98:      TXREG = 13;}
  2919  06E3  3067               	movlw	103
  2920  06E4  1283               	bcf	3,5	;RP0=0, select bank0
  2921  06E5  1303               	bcf	3,6	;RP1=0, select bank0
  2922  06E6  0099               	movwf	25	;volatile
  2923                           
  2924                           ;lab10canvas.c: 99: }
  2925  06E7  3072               	movlw	114
  2926  06E8  0099               	movwf	25	;volatile
  2927                           
  2928                           ;lab10canvas.c: 100: 
  2929  06E9  30F9               	movlw	249
  2930  06EA  00F0               	movwf	??_nuevocaracter
  2931  06EB                     u121_27:
  2932  06EB  2EEC               	nop2
  2933  06EC  0BF0               	decfsz	??_nuevocaracter,f
  2934  06ED  2EEB               	goto	u121_27
  2935  06EE  2EEF               	nop2
  2936  06EF  2EF0               	nop2
  2937                           
  2938                           ;lab10canvas.c: 101: void menu(void){
  2939  06F0  3065               	movlw	101
  2940  06F1  1283               	bcf	3,5	;RP0=0, select bank0
  2941  06F2  1303               	bcf	3,6	;RP1=0, select bank0
  2942  06F3  0099               	movwf	25	;volatile
  2943                           
  2944                           ;lab10canvas.c: 102:     if (PIR1bits.TXIF)
  2945  06F4  3073               	movlw	115
  2946  06F5  0099               	movwf	25	;volatile
  2947                           
  2948                           ;lab10canvas.c: 103:     {TXREG = 81;
  2949  06F6  30F9               	movlw	249
  2950  06F7  00F0               	movwf	??_nuevocaracter
  2951  06F8                     u122_27:
  2952  06F8  2EF9               	nop2
  2953  06F9  0BF0               	decfsz	??_nuevocaracter,f
  2954  06FA  2EF8               	goto	u122_27
  2955  06FB  2EFC               	nop2
  2956  06FC  2EFD               	nop2
  2957                           
  2958                           ;lab10canvas.c: 104:      TXREG = 117;
  2959  06FD  3065               	movlw	101
  2960  06FE  1283               	bcf	3,5	;RP0=0, select bank0
  2961  06FF  1303               	bcf	3,6	;RP1=0, select bank0
  2962  0700  0099               	movwf	25	;volatile
  2963                           
  2964                           ;lab10canvas.c: 105:      _delay((unsigned long)((5)*(1000000/4000.0)));
  2965  0701  3020               	movlw	32
  2966  0702  0099               	movwf	25	;volatile
  2967                           
  2968                           ;lab10canvas.c: 106:      TXREG = 101;
  2969  0703  30F9               	movlw	249
  2970  0704  00F0               	movwf	??_nuevocaracter
  2971  0705                     u123_27:
  2972  0705  2F06               	nop2
  2973  0706  0BF0               	decfsz	??_nuevocaracter,f
  2974  0707  2F05               	goto	u123_27
  2975  0708  2F09               	nop2
  2976  0709  2F0A               	nop2
  2977                           
  2978                           ;lab10canvas.c: 107:      TXREG = 32;
  2979  070A  306E               	movlw	110
  2980  070B  1283               	bcf	3,5	;RP0=0, select bank0
  2981  070C  1303               	bcf	3,6	;RP1=0, select bank0
  2982  070D  0099               	movwf	25	;volatile
  2983                           
  2984                           ;lab10canvas.c: 108:      _delay((unsigned long)((5)*(1000000/4000.0)));
  2985  070E  3075               	movlw	117
  2986  070F  0099               	movwf	25	;volatile
  2987                           
  2988                           ;lab10canvas.c: 109:      TXREG = 97;
  2989  0710  30F9               	movlw	249
  2990  0711  00F0               	movwf	??_nuevocaracter
  2991  0712                     u124_27:
  2992  0712  2F13               	nop2
  2993  0713  0BF0               	decfsz	??_nuevocaracter,f
  2994  0714  2F12               	goto	u124_27
  2995  0715  2F16               	nop2
  2996  0716  2F17               	nop2
  2997                           
  2998                           ;lab10canvas.c: 110:      TXREG = 99;
  2999  0717  3065               	movlw	101
  3000  0718  1283               	bcf	3,5	;RP0=0, select bank0
  3001  0719  1303               	bcf	3,6	;RP1=0, select bank0
  3002  071A  0099               	movwf	25	;volatile
  3003                           
  3004                           ;lab10canvas.c: 111:      _delay((unsigned long)((5)*(1000000/4000.0)));
  3005  071B  3076               	movlw	118
  3006  071C  0099               	movwf	25	;volatile
  3007                           
  3008                           ;lab10canvas.c: 112:      TXREG = 99;
  3009  071D  30F9               	movlw	249
  3010  071E  00F0               	movwf	??_nuevocaracter
  3011  071F                     u125_27:
  3012  071F  2F20               	nop2
  3013  0720  0BF0               	decfsz	??_nuevocaracter,f
  3014  0721  2F1F               	goto	u125_27
  3015  0722  2F23               	nop2
  3016  0723  2F24               	nop2
  3017                           
  3018                           ;lab10canvas.c: 113:      TXREG = 105;
  3019  0724  306F               	movlw	111
  3020  0725  1283               	bcf	3,5	;RP0=0, select bank0
  3021  0726  1303               	bcf	3,6	;RP1=0, select bank0
  3022  0727  0099               	movwf	25	;volatile
  3023                           
  3024                           ;lab10canvas.c: 114:      _delay((unsigned long)((5)*(1000000/4000.0)));
  3025  0728  3020               	movlw	32
  3026  0729  0099               	movwf	25	;volatile
  3027                           
  3028                           ;lab10canvas.c: 115:      TXREG = 111;
  3029  072A  30F9               	movlw	249
  3030  072B  00F0               	movwf	??_nuevocaracter
  3031  072C                     u126_27:
  3032  072C  2F2D               	nop2
  3033  072D  0BF0               	decfsz	??_nuevocaracter,f
  3034  072E  2F2C               	goto	u126_27
  3035  072F  2F30               	nop2
  3036  0730  2F31               	nop2
  3037                           
  3038                           ;lab10canvas.c: 116:      TXREG = 110;
  3039  0731  3063               	movlw	99
  3040  0732  1283               	bcf	3,5	;RP0=0, select bank0
  3041  0733  1303               	bcf	3,6	;RP1=0, select bank0
  3042  0734  0099               	movwf	25	;volatile
  3043                           
  3044                           ;lab10canvas.c: 117:      _delay((unsigned long)((5)*(1000000/4000.0)));
  3045  0735  3061               	movlw	97
  3046  0736  0099               	movwf	25	;volatile
  3047                           
  3048                           ;lab10canvas.c: 118:      TXREG = 32;
  3049  0737  30F9               	movlw	249
  3050  0738  00F0               	movwf	??_nuevocaracter
  3051  0739                     u127_27:
  3052  0739  2F3A               	nop2
  3053  073A  0BF0               	decfsz	??_nuevocaracter,f
  3054  073B  2F39               	goto	u127_27
  3055  073C  2F3D               	nop2
  3056  073D  2F3E               	nop2
  3057                           
  3058                           ;lab10canvas.c: 119:      TXREG = 100;
  3059  073E  3072               	movlw	114
  3060  073F  1283               	bcf	3,5	;RP0=0, select bank0
  3061  0740  1303               	bcf	3,6	;RP1=0, select bank0
  3062  0741  0099               	movwf	25	;volatile
  3063                           
  3064                           ;lab10canvas.c: 120:      _delay((unsigned long)((5)*(1000000/4000.0)));
  3065  0742  3061               	movlw	97
  3066  0743  0099               	movwf	25	;volatile
  3067                           
  3068                           ;lab10canvas.c: 121:      TXREG = 101;
  3069  0744  30F9               	movlw	249
  3070  0745  00F0               	movwf	??_nuevocaracter
  3071  0746                     u128_27:
  3072  0746  2F47               	nop2
  3073  0747  0BF0               	decfsz	??_nuevocaracter,f
  3074  0748  2F46               	goto	u128_27
  3075  0749  2F4A               	nop2
  3076  074A  2F4B               	nop2
  3077                           
  3078                           ;lab10canvas.c: 122:      TXREG = 115;
  3079  074B  3063               	movlw	99
  3080  074C  1283               	bcf	3,5	;RP0=0, select bank0
  3081  074D  1303               	bcf	3,6	;RP1=0, select bank0
  3082  074E  0099               	movwf	25	;volatile
  3083                           
  3084                           ;lab10canvas.c: 123:      _delay((unsigned long)((5)*(1000000/4000.0)));
  3085  074F  3074               	movlw	116
  3086  0750  0099               	movwf	25	;volatile
  3087                           
  3088                           ;lab10canvas.c: 124:      TXREG = 101;
  3089  0751  30F9               	movlw	249
  3090  0752  00F0               	movwf	??_nuevocaracter
  3091  0753                     u129_27:
  3092  0753  2F54               	nop2
  3093  0754  0BF0               	decfsz	??_nuevocaracter,f
  3094  0755  2F53               	goto	u129_27
  3095  0756  2F57               	nop2
  3096  0757  2F58               	nop2
  3097                           
  3098                           ;lab10canvas.c: 125:      TXREG = 97;
  3099  0758  3065               	movlw	101
  3100  0759  1283               	bcf	3,5	;RP0=0, select bank0
  3101  075A  1303               	bcf	3,6	;RP1=0, select bank0
  3102  075B  0099               	movwf	25	;volatile
  3103                           
  3104                           ;lab10canvas.c: 126:      _delay((unsigned long)((5)*(1000000/4000.0)));
  3105  075C  3072               	movlw	114
  3106  075D  0099               	movwf	25	;volatile
  3107                           
  3108                           ;lab10canvas.c: 127:      TXREG = 32;
  3109  075E  30F9               	movlw	249
  3110  075F  00F0               	movwf	??_nuevocaracter
  3111  0760                     u130_27:
  3112  0760  2F61               	nop2
  3113  0761  0BF0               	decfsz	??_nuevocaracter,f
  3114  0762  2F60               	goto	u130_27
  3115  0763  2F64               	nop2
  3116  0764  2F65               	nop2
  3117                           
  3118                           ;lab10canvas.c: 128:      TXREG = 101;
  3119  0765  303A               	movlw	58
  3120  0766  1283               	bcf	3,5	;RP0=0, select bank0
  3121  0767  1303               	bcf	3,6	;RP1=0, select bank0
  3122  0768  0099               	movwf	25	;volatile
  3123                           
  3124                           ;lab10canvas.c: 129:      _delay((unsigned long)((5)*(1000000/4000.0)));
  3125  0769  300D               	movlw	13
  3126  076A  0099               	movwf	25	;volatile
  3127  076B                     i1l46:
  3128  076B  0008               	return
  3129  076C                     __end_of_nuevocaracter:
  3130                           
  3131                           	psect	text5
  3132  050C                     __ptext5:	
  3133 ;; *************** function _caracteres *****************
  3134 ;; Defined at:
  3135 ;;		line 32 in file "lab10canvas.c"
  3136 ;; Parameters:    Size  Location     Type
  3137 ;;		None
  3138 ;; Auto vars:     Size  Location     Type
  3139 ;;		None
  3140 ;; Return value:  Size  Location     Type
  3141 ;;                  1    wreg      void 
  3142 ;; Registers used:
  3143 ;;		wreg, status,2
  3144 ;; Tracked objects:
  3145 ;;		On entry : 0/0
  3146 ;;		On exit  : 0/0
  3147 ;;		Unchanged: 0/0
  3148 ;; Data sizes:     COMMON   BANK0   BANK1   BANK3   BANK2
  3149 ;;      Params:         0       0       0       0       0
  3150 ;;      Locals:         0       0       0       0       0
  3151 ;;      Temps:          1       0       0       0       0
  3152 ;;      Totals:         1       0       0       0       0
  3153 ;;Total ram usage:        1 bytes
  3154 ;; Hardware stack levels used:    1
  3155 ;; This function calls:
  3156 ;;		Nothing
  3157 ;; This function is called by:
  3158 ;;		_isr
  3159 ;; This function uses a non-reentrant model
  3160 ;;
  3161                           
  3162                           
  3163                           ;psect for function _caracteres
  3164  050C                     _caracteres:
  3165  050C                     i1l672:	
  3166                           ;incstack = 0
  3167                           ; Regs used in _caracteres: [wreg+status,2]
  3168                           
  3169                           
  3170                           ;lab10canvas.c: 33:      TXREG = 109;
  3171  050C  1283               	bcf	3,5	;RP0=0, select bank0
  3172  050D  1303               	bcf	3,6	;RP1=0, select bank0
  3173  050E  1E0C               	btfss	12,4	;volatile
  3174  050F  2D11               	goto	u1_21
  3175  0510  2D12               	goto	u1_20
  3176  0511                     u1_21:
  3177  0511  2E0A               	goto	i1l42
  3178  0512                     u1_20:
  3179  0512                     i1l674:
  3180                           
  3181                           ;lab10canvas.c: 34:      TXREG = 105;
  3182  0512  0199               	clrf	25	;volatile
  3183  0513                     i1l676:
  3184                           
  3185                           ;lab10canvas.c: 35:      _delay((unsigned long)((5)*(1000000/4000.0)));
  3186  0513  304C               	movlw	76
  3187  0514  0099               	movwf	25	;volatile
  3188  0515                     i1l678:
  3189                           
  3190                           ;lab10canvas.c: 36:      TXREG = 100;
  3191  0515  30F9               	movlw	249
  3192  0516  00F0               	movwf	??_caracteres
  3193  0517                     u131_27:
  3194  0517  2D18               	nop2
  3195  0518  0BF0               	decfsz	??_caracteres,f
  3196  0519  2D17               	goto	u131_27
  3197  051A  2D1B               	nop2
  3198  051B  2D1C               	nop2
  3199  051C                     i1l680:
  3200                           
  3201                           ;lab10canvas.c: 37:      TXREG = 97;
  3202  051C  3061               	movlw	97
  3203  051D  1283               	bcf	3,5	;RP0=0, select bank0
  3204  051E  1303               	bcf	3,6	;RP1=0, select bank0
  3205  051F  0099               	movwf	25	;volatile
  3206  0520                     i1l682:
  3207                           
  3208                           ;lab10canvas.c: 38:      _delay((unsigned long)((5)*(1000000/4000.0)));
  3209  0520  3020               	movlw	32
  3210  0521  0099               	movwf	25	;volatile
  3211  0522                     i1l684:
  3212                           
  3213                           ;lab10canvas.c: 39:      TXREG = 46;
  3214  0522  30F9               	movlw	249
  3215  0523  00F0               	movwf	??_caracteres
  3216  0524                     u132_27:
  3217  0524  2D25               	nop2
  3218  0525  0BF0               	decfsz	??_caracteres,f
  3219  0526  2D24               	goto	u132_27
  3220  0527  2D28               	nop2
  3221  0528  2D29               	nop2
  3222  0529                     i1l686:
  3223                           
  3224                           ;lab10canvas.c: 40:      TXREG = 13;
  3225  0529  3063               	movlw	99
  3226  052A  1283               	bcf	3,5	;RP0=0, select bank0
  3227  052B  1303               	bcf	3,6	;RP1=0, select bank0
  3228  052C  0099               	movwf	25	;volatile
  3229  052D                     i1l688:
  3230                           
  3231                           ;lab10canvas.c: 41:      _delay((unsigned long)((5)*(1000000/4000.0)));
  3232  052D  306F               	movlw	111
  3233  052E  0099               	movwf	25	;volatile
  3234  052F                     i1l690:
  3235                           
  3236                           ;lab10canvas.c: 42:      TXREG = 45;
  3237  052F  30F9               	movlw	249
  3238  0530  00F0               	movwf	??_caracteres
  3239  0531                     u133_27:
  3240  0531  2D32               	nop2
  3241  0532  0BF0               	decfsz	??_caracteres,f
  3242  0533  2D31               	goto	u133_27
  3243  0534  2D35               	nop2
  3244  0535  2D36               	nop2
  3245  0536                     i1l692:
  3246                           
  3247                           ;lab10canvas.c: 43:      TXREG = 97;
  3248  0536  306D               	movlw	109
  3249  0537  1283               	bcf	3,5	;RP0=0, select bank0
  3250  0538  1303               	bcf	3,6	;RP1=0, select bank0
  3251  0539  0099               	movwf	25	;volatile
  3252  053A                     i1l694:
  3253                           
  3254                           ;lab10canvas.c: 44:      _delay((unsigned long)((5)*(1000000/4000.0)));
  3255  053A  3069               	movlw	105
  3256  053B  0099               	movwf	25	;volatile
  3257  053C                     i1l696:
  3258                           
  3259                           ;lab10canvas.c: 45:      TXREG = 115;
  3260  053C  30F9               	movlw	249
  3261  053D  00F0               	movwf	??_caracteres
  3262  053E                     u134_27:
  3263  053E  2D3F               	nop2
  3264  053F  0BF0               	decfsz	??_caracteres,f
  3265  0540  2D3E               	goto	u134_27
  3266  0541  2D42               	nop2
  3267  0542  2D43               	nop2
  3268  0543                     i1l698:
  3269                           
  3270                           ;lab10canvas.c: 46:      TXREG = 105;
  3271  0543  3064               	movlw	100
  3272  0544  1283               	bcf	3,5	;RP0=0, select bank0
  3273  0545  1303               	bcf	3,6	;RP1=0, select bank0
  3274  0546  0099               	movwf	25	;volatile
  3275  0547                     i1l700:
  3276                           
  3277                           ;lab10canvas.c: 47:      _delay((unsigned long)((5)*(1000000/4000.0)));
  3278  0547  3061               	movlw	97
  3279  0548  0099               	movwf	25	;volatile
  3280  0549                     i1l702:
  3281                           
  3282                           ;lab10canvas.c: 48:      TXREG = 116;
  3283  0549  30F9               	movlw	249
  3284  054A  00F0               	movwf	??_caracteres
  3285  054B                     u135_27:
  3286  054B  2D4C               	nop2
  3287  054C  0BF0               	decfsz	??_caracteres,f
  3288  054D  2D4B               	goto	u135_27
  3289  054E  2D4F               	nop2
  3290  054F  2D50               	nop2
  3291  0550                     i1l704:
  3292                           
  3293                           ;lab10canvas.c: 49:      TXREG = 116;
  3294  0550  3020               	movlw	32
  3295  0551  1283               	bcf	3,5	;RP0=0, select bank0
  3296  0552  1303               	bcf	3,6	;RP1=0, select bank0
  3297  0553  0099               	movwf	25	;volatile
  3298  0554                     i1l706:
  3299                           
  3300                           ;lab10canvas.c: 50:      _delay((unsigned long)((5)*(1000000/4000.0)));
  3301  0554  3073               	movlw	115
  3302  0555  0099               	movwf	25	;volatile
  3303  0556                     i1l708:
  3304                           
  3305                           ;lab10canvas.c: 51:      TXREG = 105;
  3306  0556  30F9               	movlw	249
  3307  0557  00F0               	movwf	??_caracteres
  3308  0558                     u136_27:
  3309  0558  2D59               	nop2
  3310  0559  0BF0               	decfsz	??_caracteres,f
  3311  055A  2D58               	goto	u136_27
  3312  055B  2D5C               	nop2
  3313  055C  2D5D               	nop2
  3314  055D                     i1l710:
  3315                           
  3316                           ;lab10canvas.c: 52:      TXREG = 110;
  3317  055D  3061               	movlw	97
  3318  055E  1283               	bcf	3,5	;RP0=0, select bank0
  3319  055F  1303               	bcf	3,6	;RP1=0, select bank0
  3320  0560  0099               	movwf	25	;volatile
  3321  0561                     i1l712:
  3322                           
  3323                           ;lab10canvas.c: 53:      _delay((unsigned long)((5)*(1000000/4000.0)));
  3324  0561  3062               	movlw	98
  3325  0562  0099               	movwf	25	;volatile
  3326  0563                     i1l714:
  3327                           
  3328                           ;lab10canvas.c: 54:      TXREG = 103;
  3329  0563  30F9               	movlw	249
  3330  0564  00F0               	movwf	??_caracteres
  3331  0565                     u137_27:
  3332  0565  2D66               	nop2
  3333  0566  0BF0               	decfsz	??_caracteres,f
  3334  0567  2D65               	goto	u137_27
  3335  0568  2D69               	nop2
  3336  0569  2D6A               	nop2
  3337  056A                     i1l716:
  3338                           
  3339                           ;lab10canvas.c: 55:      TXREG = 102;
  3340  056A  3065               	movlw	101
  3341  056B  1283               	bcf	3,5	;RP0=0, select bank0
  3342  056C  1303               	bcf	3,6	;RP1=0, select bank0
  3343  056D  0099               	movwf	25	;volatile
  3344  056E                     i1l718:
  3345                           
  3346                           ;lab10canvas.c: 56:      _delay((unsigned long)((5)*(1000000/4000.0)));
  3347  056E  3020               	movlw	32
  3348  056F  0099               	movwf	25	;volatile
  3349  0570                     i1l720:
  3350                           
  3351                           ;lab10canvas.c: 57:      TXREG = 114;
  3352  0570  30F9               	movlw	249
  3353  0571  00F0               	movwf	??_caracteres
  3354  0572                     u138_27:
  3355  0572  2D73               	nop2
  3356  0573  0BF0               	decfsz	??_caracteres,f
  3357  0574  2D72               	goto	u138_27
  3358  0575  2D76               	nop2
  3359  0576  2D77               	nop2
  3360  0577                     i1l722:
  3361                           
  3362                           ;lab10canvas.c: 58:      TXREG = 111;
  3363  0577  3061               	movlw	97
  3364  0578  1283               	bcf	3,5	;RP0=0, select bank0
  3365  0579  1303               	bcf	3,6	;RP1=0, select bank0
  3366  057A  0099               	movwf	25	;volatile
  3367  057B                     i1l724:
  3368                           
  3369                           ;lab10canvas.c: 59:      _delay((unsigned long)((5)*(1000000/4000.0)));
  3370  057B  3020               	movlw	32
  3371  057C  0099               	movwf	25	;volatile
  3372  057D                     i1l726:
  3373                           
  3374                           ;lab10canvas.c: 60:      TXREG = 103;}
  3375  057D  30F9               	movlw	249
  3376  057E  00F0               	movwf	??_caracteres
  3377  057F                     u139_27:
  3378  057F  2D80               	nop2
  3379  0580  0BF0               	decfsz	??_caracteres,f
  3380  0581  2D7F               	goto	u139_27
  3381  0582  2D83               	nop2
  3382  0583  2D84               	nop2
  3383  0584                     i1l728:
  3384                           
  3385                           ;lab10canvas.c: 61: }
  3386  0584  3063               	movlw	99
  3387  0585  1283               	bcf	3,5	;RP0=0, select bank0
  3388  0586  1303               	bcf	3,6	;RP1=0, select bank0
  3389  0587  0099               	movwf	25	;volatile
  3390  0588                     i1l730:
  3391                           
  3392                           ;lab10canvas.c: 62: void nuevocaracter(void){
  3393  0588  306F               	movlw	111
  3394  0589  0099               	movwf	25	;volatile
  3395  058A                     i1l732:
  3396                           
  3397                           ;lab10canvas.c: 63:     if (PIR1bits.TXIF)
  3398  058A  30F9               	movlw	249
  3399  058B  00F0               	movwf	??_caracteres
  3400  058C                     u140_27:
  3401  058C  2D8D               	nop2
  3402  058D  0BF0               	decfsz	??_caracteres,f
  3403  058E  2D8C               	goto	u140_27
  3404  058F  2D90               	nop2
  3405  0590  2D91               	nop2
  3406  0591                     i1l734:
  3407                           
  3408                           ;lab10canvas.c: 64:     {TXREG = 73;
  3409  0591  306D               	movlw	109
  3410  0592  1283               	bcf	3,5	;RP0=0, select bank0
  3411  0593  1303               	bcf	3,6	;RP1=0, select bank0
  3412  0594  0099               	movwf	25	;volatile
  3413  0595                     i1l736:
  3414                           
  3415                           ;lab10canvas.c: 65:      TXREG = 110;
  3416  0595  3069               	movlw	105
  3417  0596  0099               	movwf	25	;volatile
  3418  0597                     i1l738:
  3419                           
  3420                           ;lab10canvas.c: 66:      _delay((unsigned long)((5)*(1000000/4000.0)));
  3421  0597  30F9               	movlw	249
  3422  0598  00F0               	movwf	??_caracteres
  3423  0599                     u141_27:
  3424  0599  2D9A               	nop2
  3425  059A  0BF0               	decfsz	??_caracteres,f
  3426  059B  2D99               	goto	u141_27
  3427  059C  2D9D               	nop2
  3428  059D  2D9E               	nop2
  3429  059E                     i1l740:
  3430                           
  3431                           ;lab10canvas.c: 67:      TXREG = 103;
  3432  059E  3064               	movlw	100
  3433  059F  1283               	bcf	3,5	;RP0=0, select bank0
  3434  05A0  1303               	bcf	3,6	;RP1=0, select bank0
  3435  05A1  0099               	movwf	25	;volatile
  3436  05A2                     i1l742:
  3437                           
  3438                           ;lab10canvas.c: 68:      TXREG = 114;
  3439  05A2  3061               	movlw	97
  3440  05A3  0099               	movwf	25	;volatile
  3441  05A4                     i1l744:
  3442                           
  3443                           ;lab10canvas.c: 69:      _delay((unsigned long)((5)*(1000000/4000.0)));
  3444  05A4  30F9               	movlw	249
  3445  05A5  00F0               	movwf	??_caracteres
  3446  05A6                     u142_27:
  3447  05A6  2DA7               	nop2
  3448  05A7  0BF0               	decfsz	??_caracteres,f
  3449  05A8  2DA6               	goto	u142_27
  3450  05A9  2DAA               	nop2
  3451  05AA  2DAB               	nop2
  3452  05AB                     i1l746:
  3453                           
  3454                           ;lab10canvas.c: 70:      TXREG = 101;
  3455  05AB  302E               	movlw	46
  3456  05AC  1283               	bcf	3,5	;RP0=0, select bank0
  3457  05AD  1303               	bcf	3,6	;RP1=0, select bank0
  3458  05AE  0099               	movwf	25	;volatile
  3459  05AF                     i1l748:
  3460                           
  3461                           ;lab10canvas.c: 71:      TXREG = 115;
  3462  05AF  300D               	movlw	13
  3463  05B0  0099               	movwf	25	;volatile
  3464  05B1                     i1l750:
  3465                           
  3466                           ;lab10canvas.c: 72:      _delay((unsigned long)((5)*(1000000/4000.0)));
  3467  05B1  30F9               	movlw	249
  3468  05B2  00F0               	movwf	??_caracteres
  3469  05B3                     u143_27:
  3470  05B3  2DB4               	nop2
  3471  05B4  0BF0               	decfsz	??_caracteres,f
  3472  05B5  2DB3               	goto	u143_27
  3473  05B6  2DB7               	nop2
  3474  05B7  2DB8               	nop2
  3475  05B8                     i1l752:
  3476                           
  3477                           ;lab10canvas.c: 73:      TXREG = 101;
  3478  05B8  302D               	movlw	45
  3479  05B9  1283               	bcf	3,5	;RP0=0, select bank0
  3480  05BA  1303               	bcf	3,6	;RP1=0, select bank0
  3481  05BB  0099               	movwf	25	;volatile
  3482  05BC                     i1l754:
  3483                           
  3484                           ;lab10canvas.c: 74:      TXREG = 32;
  3485  05BC  3061               	movlw	97
  3486  05BD  0099               	movwf	25	;volatile
  3487  05BE                     i1l756:
  3488                           
  3489                           ;lab10canvas.c: 75:      _delay((unsigned long)((5)*(1000000/4000.0)));
  3490  05BE  30F9               	movlw	249
  3491  05BF  00F0               	movwf	??_caracteres
  3492  05C0                     u144_27:
  3493  05C0  2DC1               	nop2
  3494  05C1  0BF0               	decfsz	??_caracteres,f
  3495  05C2  2DC0               	goto	u144_27
  3496  05C3  2DC4               	nop2
  3497  05C4  2DC5               	nop2
  3498  05C5                     i1l758:
  3499                           
  3500                           ;lab10canvas.c: 76:      TXREG = 110;
  3501  05C5  3073               	movlw	115
  3502  05C6  1283               	bcf	3,5	;RP0=0, select bank0
  3503  05C7  1303               	bcf	3,6	;RP1=0, select bank0
  3504  05C8  0099               	movwf	25	;volatile
  3505  05C9                     i1l760:
  3506                           
  3507                           ;lab10canvas.c: 77:      TXREG = 117;
  3508  05C9  3069               	movlw	105
  3509  05CA  0099               	movwf	25	;volatile
  3510  05CB                     i1l762:
  3511                           
  3512                           ;lab10canvas.c: 78:      _delay((unsigned long)((5)*(1000000/4000.0)));
  3513  05CB  30F9               	movlw	249
  3514  05CC  00F0               	movwf	??_caracteres
  3515  05CD                     u145_27:
  3516  05CD  2DCE               	nop2
  3517  05CE  0BF0               	decfsz	??_caracteres,f
  3518  05CF  2DCD               	goto	u145_27
  3519  05D0  2DD1               	nop2
  3520  05D1  2DD2               	nop2
  3521  05D2                     i1l764:
  3522                           
  3523                           ;lab10canvas.c: 79:      TXREG = 101;
  3524  05D2  3074               	movlw	116
  3525  05D3  1283               	bcf	3,5	;RP0=0, select bank0
  3526  05D4  1303               	bcf	3,6	;RP1=0, select bank0
  3527  05D5  0099               	movwf	25	;volatile
  3528  05D6                     i1l766:
  3529                           
  3530                           ;lab10canvas.c: 80:      TXREG = 118;
  3531  05D6  3074               	movlw	116
  3532  05D7  0099               	movwf	25	;volatile
  3533  05D8                     i1l768:
  3534                           
  3535                           ;lab10canvas.c: 81:      _delay((unsigned long)((5)*(1000000/4000.0)));
  3536  05D8  30F9               	movlw	249
  3537  05D9  00F0               	movwf	??_caracteres
  3538  05DA                     u146_27:
  3539  05DA  2DDB               	nop2
  3540  05DB  0BF0               	decfsz	??_caracteres,f
  3541  05DC  2DDA               	goto	u146_27
  3542  05DD  2DDE               	nop2
  3543  05DE  2DDF               	nop2
  3544  05DF                     i1l770:
  3545                           
  3546                           ;lab10canvas.c: 82:      TXREG = 111;
  3547  05DF  3069               	movlw	105
  3548  05E0  1283               	bcf	3,5	;RP0=0, select bank0
  3549  05E1  1303               	bcf	3,6	;RP1=0, select bank0
  3550  05E2  0099               	movwf	25	;volatile
  3551  05E3                     i1l772:
  3552                           
  3553                           ;lab10canvas.c: 83:      TXREG = 32;
  3554  05E3  306E               	movlw	110
  3555  05E4  0099               	movwf	25	;volatile
  3556  05E5                     i1l774:
  3557                           
  3558                           ;lab10canvas.c: 84:      _delay((unsigned long)((5)*(1000000/4000.0)));
  3559  05E5  30F9               	movlw	249
  3560  05E6  00F0               	movwf	??_caracteres
  3561  05E7                     u147_27:
  3562  05E7  2DE8               	nop2
  3563  05E8  0BF0               	decfsz	??_caracteres,f
  3564  05E9  2DE7               	goto	u147_27
  3565  05EA  2DEB               	nop2
  3566  05EB  2DEC               	nop2
  3567  05EC                     i1l776:
  3568                           
  3569                           ;lab10canvas.c: 85:      TXREG = 99;
  3570  05EC  3067               	movlw	103
  3571  05ED  1283               	bcf	3,5	;RP0=0, select bank0
  3572  05EE  1303               	bcf	3,6	;RP1=0, select bank0
  3573  05EF  0099               	movwf	25	;volatile
  3574  05F0                     i1l778:
  3575                           
  3576                           ;lab10canvas.c: 86:      TXREG = 97;
  3577  05F0  3066               	movlw	102
  3578  05F1  0099               	movwf	25	;volatile
  3579  05F2                     i1l780:
  3580                           
  3581                           ;lab10canvas.c: 87:      _delay((unsigned long)((5)*(1000000/4000.0)));
  3582  05F2  30F9               	movlw	249
  3583  05F3  00F0               	movwf	??_caracteres
  3584  05F4                     u148_27:
  3585  05F4  2DF5               	nop2
  3586  05F5  0BF0               	decfsz	??_caracteres,f
  3587  05F6  2DF4               	goto	u148_27
  3588  05F7  2DF8               	nop2
  3589  05F8  2DF9               	nop2
  3590  05F9                     i1l782:
  3591                           
  3592                           ;lab10canvas.c: 88:      TXREG = 114;
  3593  05F9  3072               	movlw	114
  3594  05FA  1283               	bcf	3,5	;RP0=0, select bank0
  3595  05FB  1303               	bcf	3,6	;RP1=0, select bank0
  3596  05FC  0099               	movwf	25	;volatile
  3597  05FD                     i1l784:
  3598                           
  3599                           ;lab10canvas.c: 89:      TXREG = 97;
  3600  05FD  306F               	movlw	111
  3601  05FE  0099               	movwf	25	;volatile
  3602  05FF                     i1l786:
  3603                           
  3604                           ;lab10canvas.c: 90:      _delay((unsigned long)((5)*(1000000/4000.0)));
  3605  05FF  30F9               	movlw	249
  3606  0600  00F0               	movwf	??_caracteres
  3607  0601                     u149_27:
  3608  0601  2E02               	nop2
  3609  0602  0BF0               	decfsz	??_caracteres,f
  3610  0603  2E01               	goto	u149_27
  3611  0604  2E05               	nop2
  3612  0605  2E06               	nop2
  3613  0606                     i1l788:
  3614                           
  3615                           ;lab10canvas.c: 91:      TXREG = 99;
  3616  0606  3067               	movlw	103
  3617  0607  1283               	bcf	3,5	;RP0=0, select bank0
  3618  0608  1303               	bcf	3,6	;RP1=0, select bank0
  3619  0609  0099               	movwf	25	;volatile
  3620  060A                     i1l42:
  3621  060A  0008               	return
  3622  060B                     __end_of_caracteres:
  3623  007E                     btemp	set	126	;btemp
  3624  007E                     wtemp0	set	126
  3625                           
  3626                           	psect	config
  3627                           
  3628                           ;Config register CONFIG1 @ 0x2007
  3629                           ;	Oscillator Selection bits
  3630                           ;	FOSC = INTRC_NOCLKOUT, INTOSCIO oscillator: I/O function on RA6/OSC2/CLKOUT pin, I/O f
      +                          unction on RA7/OSC1/CLKIN
  3631                           ;	Watchdog Timer Enable bit
  3632                           ;	WDTE = OFF, WDT disabled and can be enabled by SWDTEN bit of the WDTCON register
  3633                           ;	Power-up Timer Enable bit
  3634                           ;	PWRTE = ON, PWRT enabled
  3635                           ;	RE3/MCLR pin function select bit
  3636                           ;	MCLRE = OFF, RE3/MCLR pin function is digital input, MCLR internally tied to VDD
  3637                           ;	Code Protection bit
  3638                           ;	CP = OFF, Program memory code protection is disabled
  3639                           ;	Data Code Protection bit
  3640                           ;	CPD = OFF, Data memory code protection is disabled
  3641                           ;	Brown Out Reset Selection bits
  3642                           ;	BOREN = OFF, BOR disabled
  3643                           ;	Internal External Switchover bit
  3644                           ;	IESO = OFF, Internal/External Switchover mode is disabled
  3645                           ;	Fail-Safe Clock Monitor Enabled bit
  3646                           ;	FCMEN = OFF, Fail-Safe Clock Monitor is disabled
  3647                           ;	Low Voltage Programming Enable bit
  3648                           ;	LVP = ON, RB3/PGM pin has PGM function, low voltage programming enabled
  3649                           ;	In-Circuit Debugger Mode bit
  3650                           ;	DEBUG = 0x1, unprogrammed default
  3651  2007                     	org	8199
  3652  2007  30C4               	dw	12484
  3653                           
  3654                           ;Config register CONFIG2 @ 0x2008
  3655                           ;	Brown-out Reset Selection bit
  3656                           ;	BOR4V = BOR40V, Brown-out Reset set to 4.0V
  3657                           ;	Flash Program Memory Self Write Enable bits
  3658                           ;	WRT = OFF, Write protection off
  3659  2008                     	org	8200
  3660  2008  3FFF               	dw	16383

Data Sizes:
    Strings     0
    Constant    0
    Data        0
    BSS         1
    Persistent  0
    Stack       0

Auto Spaces:
    Space          Size  Autos    Used
    COMMON           14      8       9
    BANK0            80      0       0
    BANK1            80      0       0
    BANK3            96      0       0
    BANK2            96      0       0

Pointer List with Targets:

    None.

Critical Paths under _main in COMMON

    _main->_menu

Critical Paths under _isr in COMMON

    _isr->_caracteres
    _isr->_nuevocaracter
    _isr->i1_menu

Critical Paths under _main in BANK0

    None.

Critical Paths under _isr in BANK0

    None.

Critical Paths under _main in BANK1

    None.

Critical Paths under _isr in BANK1

    None.

Critical Paths under _main in BANK3

    None.

Critical Paths under _isr in BANK3

    None.

Critical Paths under _main in BANK2

    None.

Critical Paths under _isr in BANK2

    None.

Call Graph Tables:

 ---------------------------------------------------------------------------------
 (Depth) Function   	        Calls       Base Space   Used Autos Params    Refs
 ---------------------------------------------------------------------------------
 (0) _main                                                 1     1      0       0
                                              7 COMMON     1     1      0
                               _menu
 ---------------------------------------------------------------------------------
 (1) _menu                                                 1     1      0       0
                                              6 COMMON     1     1      0
 ---------------------------------------------------------------------------------
 Estimated maximum stack depth 1
 ---------------------------------------------------------------------------------
 (Depth) Function   	        Calls       Base Space   Used Autos Params    Refs
 ---------------------------------------------------------------------------------
 (2) _isr                                                  5     5      0       0
                                              1 COMMON     5     5      0
                         _caracteres
                      _nuevocaracter
                             i1_menu
 ---------------------------------------------------------------------------------
 (3) i1_menu                                               1     1      0       0
                                              0 COMMON     1     1      0
 ---------------------------------------------------------------------------------
 (3) _nuevocaracter                                        1     1      0       0
                                              0 COMMON     1     1      0
 ---------------------------------------------------------------------------------
 (3) _caracteres                                           1     1      0       0
                                              0 COMMON     1     1      0
 ---------------------------------------------------------------------------------
 Estimated maximum stack depth 3
 ---------------------------------------------------------------------------------

 Call Graph Graphs:

 _main (ROOT)
   _menu

 _isr (ROOT)
   _caracteres
   _nuevocaracter
   i1_menu

 Address spaces:
Name               Size   Autos  Total    Cost      Usage
BITCOMMON            E      0       0       0        0.0%
EEDATA             100      0       0       0        0.0%
NULL                 0      0       0       0        0.0%
CODE                 0      0       0       0        0.0%
COMMON               E      8       9       1       64.3%
BITSFR0              0      0       0       1        0.0%
SFR0                 0      0       0       1        0.0%
BITSFR1              0      0       0       2        0.0%
SFR1                 0      0       0       2        0.0%
STACK                0      0       0       2        0.0%
ABS                  0      0       9       3        0.0%
BITBANK0            50      0       0       4        0.0%
BITSFR3              0      0       0       4        0.0%
SFR3                 0      0       0       4        0.0%
BANK0               50      0       0       5        0.0%
BITSFR2              0      0       0       5        0.0%
SFR2                 0      0       0       5        0.0%
BITBANK1            50      0       0       6        0.0%
BANK1               50      0       0       7        0.0%
BITBANK3            60      0       0       8        0.0%
BANK3               60      0       0       9        0.0%
BITBANK2            60      0       0      10        0.0%
BANK2               60      0       0      11        0.0%
DATA                 0      0       9      12        0.0%


Microchip Technology PIC Macro Assembler V2.31 build 20201012212115 
Symbol Table                                                                                   Thu May 06 16:51:36 2021

                     l50 0290                       l77 07AD                       l78 07AD  
                     u30 001C                       u31 001B                      l900 0790  
                    l910 079F                      l902 0793                      l912 07A0  
                    l904 0796                      l914 07A1                      l906 0799  
                    l916 07A6                      l908 079C                      l870 0772  
                    l880 077B                      l872 0773                      l794 0016  
                    l890 0786                      l882 077E                      l874 0776  
                    l796 001C                      l892 078A                      l884 077F  
                    l876 0777                      l868 076C                      l894 078B  
                    l886 0782                      l878 077A                      l896 078E  
                    l888 0783                      l898 078F                      u207 0056  
                    u217 0063                      u307 00D8                      u227 0070  
                    u317 00E5                      u237 007D                      u157 07A8  
                    u407 015A                      u327 00F2                      u247 008A  
                    u167 0022                      u417 0167                      u337 00FF  
                    u257 0097                      u177 002F                      u507 01DC  
                    u427 0174                      u347 010C                      u267 00A4  
                    u187 003C                      u517 01E9                      u437 0181  
                    u357 0119                      u277 00B1                      u197 0049  
                    u607 025E                      u527 01F6                      u447 018E  
                    u367 0126                      u287 00BE                      u617 026B  
                    u537 0203                      u457 019B                      u377 0133  
                    u297 00CB                      u627 0278                      u547 0210  
                    u467 01A8                      u387 0140                      u637 0285  
                    u557 021D                      u477 01B5                      u397 014D  
                    u567 022A                      u487 01C2                      u577 0237  
                    u497 01CF                      u587 0244                      u597 0251  
                    _isr 060B                      fsr0 0004                     ?_isr 0070  
                   i1l42 060A                     i1l50 050B                     i1l46 076B  
                   i1l70 069A                     i1l71 06A9                     i1l64 0651  
                   i1l72 06C9                     i1l65 0660                     i1l58 061F  
                   u1_20 0512                     u1_21 0511                     u2_20 06D8  
                   u2_21 06D7                     u4_20 0297                     u4_21 0296  
                   u5_20 0611                     u5_21 0610                     u6_20 061D  
                   u6_21 061C                     u7_20 0637                     u7_21 0636  
                   u8_20 0642                     u8_21 0641                     u9_20 064F  
                   u9_21 064E                     _main 076C                     _menu 0016  
                   btemp 007E                     start 000E          ??_nuevocaracter 0070  
                  ??_isr 0071                    ?_main 0070                    ?_menu 0070  
                  _ANSEL 0188                    i1l700 0547                    i1l710 055D  
                  i1l702 0549                    i1l720 0570                    i1l712 0561  
                  i1l704 0550                    i1l800 0297                    i1l730 0588  
                  i1l722 0577                    i1l714 0563                    i1l706 0554  
                  i1l810 061D                    i1l802 060B                    i1l740 059E  
                  i1l732 058A                    i1l724 057B                    i1l716 056A  
                  i1l708 0556                    i1l820 063D                    i1l812 0626  
                  i1l750 05B1                    i1l742 05A2                    i1l734 0591  
                  i1l726 057D                    i1l718 056E                    i1l830 065E  
                  i1l822 0642                    i1l814 062C                    i1l806 0612  
                  i1l760 05C9                    i1l752 05B8                    i1l744 05A4  
                  i1l736 0595                    i1l728 0584                    i1l680 051C  
                  i1l672 050C                    i1l840 067A                    i1l832 0667  
                  i1l824 0649                    i1l816 0631                    i1l808 0617  
                  i1l770 05DF                    i1l762 05CB                    i1l754 05BC  
                  i1l746 05AB                    i1l738 0597                    i1l690 052F  
                  i1l682 0520                    i1l674 0512                    i1l850 0698  
                  i1l842 0680                    i1l834 066C                    i1l826 064F  
                  i1l818 0637                    i1l780 05F2                    i1l772 05E3  
                  i1l764 05D2                    i1l756 05BE                    i1l748 05AF  
                  i1l692 0536                    i1l684 0522                    i1l676 0513  
                  i1l852 06A1                    i1l844 0686                    i1l836 0673  
                  i1l828 0658                    i1l782 05F9                    i1l774 05E5  
                  i1l766 05D6                    i1l758 05C5                    i1l694 053A  
                  i1l686 0529                    i1l678 0515                    i1l790 06D2  
                  i1l854 06A7                    i1l846 068B                    i1l838 0675  
                  i1l862 06B6                    i1l784 05FD                    i1l776 05EC  
                  i1l768 05D8                    i1l696 053C                    i1l688 052D  
                  i1l792 06D8                    i1l856 06B0                    i1l848 0692  
                  i1l786 05FF                    i1l778 05F0                    i1l698 0543  
                  i1l938 06BE                    i1l788 0606                    i1l798 0291  
                  _RCREG 001A                    u10_20 065E                    u10_21 065D  
                  u11_20 0680                    u11_21 067F                    u12_20 068B  
                  u12_21 068A                    u13_20 0698                    u13_21 0697  
                  u14_20 06A7                    u14_21 06A6                    _SPBRG 0099  
                  _PORTA 0005                    _PORTB 0006                    u70_27 069C  
                  u71_27 06AB                    u80_27 0305                    u72_27 029D  
                  u64_27 0621                    _TRISA 0085                    _TRISB 0086  
                  u81_27 0312                    u73_27 02AA                    u65_27 0644  
                  u90_27 0387                    u82_27 031F                    u74_27 02B7  
                  u66_27 0653                    u91_27 0394                    u83_27 032C  
                  u75_27 02C4                    u67_27 0662                    u92_27 03A1  
                  u84_27 0339                    u76_27 02D1                    u68_27 066E  
                  u93_27 03AE                    u85_27 0346                    u77_27 02DE  
                  u69_27 068D                    u94_27 03BB                    u86_27 0353  
                  u78_27 02EB                    u95_27 03C8                    u87_27 0360  
                  u79_27 02F8                    u96_27 03D5                    u88_27 036D  
                  _TXREG 0019                    u97_27 03E2                    u89_27 037A  
                  u98_27 03EF                    u99_27 03FC                    pclath 000A  
                  status 0003                    wtemp0 007E          __initialization 0011  
           __end_of_main 07B1             __end_of_menu 0291                   ??_main 0077  
                 ??_menu 0076                   _ANSELH 0189                   u100_27 0409  
                 u101_27 0416                   u110_27 048B                   u102_27 0423  
                 u111_27 0498                   u103_27 0430                   u120_27 06DE  
                 u112_27 04A5                   u104_27 043D                   u121_27 06EB  
                 u113_27 04B2                   u105_27 044A                   u130_27 0760  
                 u122_27 06F8                   u114_27 04BF                   u106_27 0457  
                 u131_27 0517                   u123_27 0705                   u115_27 04CC  
                 u107_27 0464                   u140_27 058C                   u132_27 0524  
                 u124_27 0712                   u116_27 04D9                   u108_27 0471  
                 u141_27 0599                   u133_27 0531                   u125_27 071F  
                 u117_27 04E6                   u109_27 047E                   u142_27 05A6  
                 u134_27 053E                   u126_27 072C                   u118_27 04F3  
                 u143_27 05B3                   u135_27 054B                   u127_27 0739  
                 u119_27 0500                   u144_27 05C0                   u136_27 0558  
                 u128_27 0746                   u145_27 05CD                   u137_27 0565  
                 u129_27 0753                   u146_27 05DA                   u138_27 0572  
                 u147_27 05E7                   u139_27 057F                   u148_27 05F4  
                 u149_27 0601                   _SPBRGH 009A                   i1_menu 0291  
                 saved_w 007E  __end_of__initialization 0012           __pcstackCOMMON 0070  
             _caracteres 050C                  ?i1_menu 0070               __pmaintext 076C  
             __pintentry 0004          __size_ofi1_menu 027B    __end_of_nuevocaracter 076C  
                __ptext1 0016                  __ptext2 060B                  __ptext3 0291  
                __ptext4 06D2                  __ptext5 050C             __size_of_isr 00C7  
   end_of_initialization 0012              ?_caracteres 0070                _RCSTAbits 0018  
              _TXSTAbits 0098           __end_ofi1_menu 050C      __size_of_caracteres 00FF  
            _BAUDCTLbits 0187      start_initialization 0011              __end_of_isr 06D2  
               ??i1_menu 0070              __pbssCOMMON 0078                ___latbits 0002  
              _centinela 0078             ??_caracteres 0070        interrupt_function 0004  
               _PIE1bits 008C                 _PIR1bits 000C       __end_of_caracteres 060B  
 __size_of_nuevocaracter 009A            __size_of_main 0045            __size_of_menu 027B  
          _nuevocaracter 06D2               _INTCONbits 000B                 intlevel1 0000  
             _OSCCONbits 008F           ?_nuevocaracter 0070  
