

Microchip MPLAB XC8 Assembler V2.31 build 20201012212115 
                                                                                               Fri Jun 04 01:33:56 2021

Microchip MPLAB XC8 C Compiler v2.31 (Free license) build 20201012212115 Og1 
     1                           	processor	16F887
     2                           	pagewidth 120
     3                           	opt	flic
     4                           	psect	cinit,global,class=CODE,merge=1,delta=2
     5                           	psect	bssCOMMON,global,class=COMMON,space=1,delta=1,noexec
     6                           	psect	bssBANK0,global,class=BANK0,space=1,delta=1,noexec
     7                           	psect	cstackCOMMON,global,class=COMMON,space=1,delta=1,noexec
     8                           	psect	cstackBANK0,global,class=BANK0,space=1,delta=1,noexec
     9                           	psect	maintext,global,class=CODE,split=1,delta=2
    10                           	psect	text1,local,class=CODE,merge=1,delta=2
    11                           	psect	intentry,global,class=CODE,delta=2
    12                           	psect	text2,local,class=CODE,merge=1,delta=2
    13                           	psect	config,global,abs,ovrld,class=CONFIG,space=4,delta=2,noexec
    14                           	dabs	1,0x7E,2
    15  0000                     
    16                           ; Version 2.20
    17                           ; Generated 12/02/2020 GMT
    18                           ; 
    19                           ; Copyright © 2020, Microchip Technology Inc. and its subsidiaries ("Microchip")
    20                           ; All rights reserved.
    21                           ; 
    22                           ; This software is developed by Microchip Technology Inc. and its subsidiaries ("Microch
      +                          ip").
    23                           ; 
    24                           ; Redistribution and use in source and binary forms, with or without modification, are
    25                           ; permitted provided that the following conditions are met:
    26                           ; 
    27                           ;     1. Redistributions of source code must retain the above copyright notice, this lis
      +                          t of
    28                           ;        conditions and the following disclaimer.
    29                           ; 
    30                           ;     2. Redistributions in binary form must reproduce the above copyright notice, this 
      +                          list
    31                           ;        of conditions and the following disclaimer in the documentation and/or other
    32                           ;        materials provided with the distribution.
    33                           ; 
    34                           ;     3. Microchip's name may not be used to endorse or promote products derived from th
      +                          is
    35                           ;        software without specific prior written permission.
    36                           ; 
    37                           ; THIS SOFTWARE IS PROVIDED BY MICROCHIP "AS IS" AND ANY EXPRESS OR IMPLIED WARRANTIES,
    38                           ; INCLUDING, BUT NOT LIMITED TO, THE IMPLIED WARRANTIES OF MERCHANTABILITY AND FITNESS F
      +                          OR
    39                           ; PURPOSE ARE DISCLAIMED.  IN NO EVENT SHALL MICROCHIP BE LIABLE FOR ANY DIRECT, INDIREC
      +                          T,
    40                           ; INCIDENTAL, SPECIAL, EXEMPLARY, OR CONSEQUENTIAL DAMAGES (INCLUDING BUT NOT LIMITED TO
    41                           ; PROCUREMENT OF SUBSTITUTE GOODS OR SERVICES; LOSS OF USE, DATA OR PROFITS; OR BUSINESS
    42                           ; INTERRUPTION) HOWSOEVER CAUSED AND ON ANY THEORY OF LIABILITY, WHETHER IN CONTRACT, ST
      +                          RICT
    43                           ; LIABILITY, OR TORT (INCLUDING NEGLIGENCE OR OTHERWISE) ARISING IN ANY WAY OUT OF THE U
      +                          SE OF
    44                           ; THIS SOFTWARE, EVEN IF ADVISED OF THE POSSIBILITY OF SUCH DAMAGE.
    45                           ; 
    46                           ; 
    47                           ; Code-generator required, PIC16F887 Definitions
    48                           ; 
    49                           ; SFR Addresses
    50  0000                     	;# 
    51  0001                     	;# 
    52  0002                     	;# 
    53  0003                     	;# 
    54  0004                     	;# 
    55  0005                     	;# 
    56  0006                     	;# 
    57  0007                     	;# 
    58  0008                     	;# 
    59  0009                     	;# 
    60  000A                     	;# 
    61  000B                     	;# 
    62  000C                     	;# 
    63  000D                     	;# 
    64  000E                     	;# 
    65  000E                     	;# 
    66  000F                     	;# 
    67  0010                     	;# 
    68  0011                     	;# 
    69  0012                     	;# 
    70  0013                     	;# 
    71  0014                     	;# 
    72  0015                     	;# 
    73  0015                     	;# 
    74  0016                     	;# 
    75  0017                     	;# 
    76  0018                     	;# 
    77  0019                     	;# 
    78  001A                     	;# 
    79  001B                     	;# 
    80  001B                     	;# 
    81  001C                     	;# 
    82  001D                     	;# 
    83  001E                     	;# 
    84  001F                     	;# 
    85  0081                     	;# 
    86  0085                     	;# 
    87  0086                     	;# 
    88  0087                     	;# 
    89  0088                     	;# 
    90  0089                     	;# 
    91  008C                     	;# 
    92  008D                     	;# 
    93  008E                     	;# 
    94  008F                     	;# 
    95  0090                     	;# 
    96  0091                     	;# 
    97  0092                     	;# 
    98  0093                     	;# 
    99  0093                     	;# 
   100  0093                     	;# 
   101  0094                     	;# 
   102  0095                     	;# 
   103  0096                     	;# 
   104  0097                     	;# 
   105  0098                     	;# 
   106  0099                     	;# 
   107  009A                     	;# 
   108  009B                     	;# 
   109  009C                     	;# 
   110  009D                     	;# 
   111  009E                     	;# 
   112  009F                     	;# 
   113  0105                     	;# 
   114  0107                     	;# 
   115  0108                     	;# 
   116  0109                     	;# 
   117  010C                     	;# 
   118  010C                     	;# 
   119  010D                     	;# 
   120  010E                     	;# 
   121  010F                     	;# 
   122  0185                     	;# 
   123  0187                     	;# 
   124  0188                     	;# 
   125  0189                     	;# 
   126  018C                     	;# 
   127  018D                     	;# 
   128  0000                     	;# 
   129  0001                     	;# 
   130  0002                     	;# 
   131  0003                     	;# 
   132  0004                     	;# 
   133  0005                     	;# 
   134  0006                     	;# 
   135  0007                     	;# 
   136  0008                     	;# 
   137  0009                     	;# 
   138  000A                     	;# 
   139  000B                     	;# 
   140  000C                     	;# 
   141  000D                     	;# 
   142  000E                     	;# 
   143  000E                     	;# 
   144  000F                     	;# 
   145  0010                     	;# 
   146  0011                     	;# 
   147  0012                     	;# 
   148  0013                     	;# 
   149  0014                     	;# 
   150  0015                     	;# 
   151  0015                     	;# 
   152  0016                     	;# 
   153  0017                     	;# 
   154  0018                     	;# 
   155  0019                     	;# 
   156  001A                     	;# 
   157  001B                     	;# 
   158  001B                     	;# 
   159  001C                     	;# 
   160  001D                     	;# 
   161  001E                     	;# 
   162  001F                     	;# 
   163  0081                     	;# 
   164  0085                     	;# 
   165  0086                     	;# 
   166  0087                     	;# 
   167  0088                     	;# 
   168  0089                     	;# 
   169  008C                     	;# 
   170  008D                     	;# 
   171  008E                     	;# 
   172  008F                     	;# 
   173  0090                     	;# 
   174  0091                     	;# 
   175  0092                     	;# 
   176  0093                     	;# 
   177  0093                     	;# 
   178  0093                     	;# 
   179  0094                     	;# 
   180  0095                     	;# 
   181  0096                     	;# 
   182  0097                     	;# 
   183  0098                     	;# 
   184  0099                     	;# 
   185  009A                     	;# 
   186  009B                     	;# 
   187  009C                     	;# 
   188  009D                     	;# 
   189  009E                     	;# 
   190  009F                     	;# 
   191  0105                     	;# 
   192  0107                     	;# 
   193  0108                     	;# 
   194  0109                     	;# 
   195  010C                     	;# 
   196  010C                     	;# 
   197  010D                     	;# 
   198  010E                     	;# 
   199  010F                     	;# 
   200  0185                     	;# 
   201  0187                     	;# 
   202  0188                     	;# 
   203  0189                     	;# 
   204  018C                     	;# 
   205  018D                     	;# 
   206  0012                     _T2CONbits	set	18
   207  0010                     _T1CONbits	set	16
   208  001D                     _CCP2CONbits	set	29
   209  0017                     _CCP1CONbits	set	23
   210  0009                     _PORTE	set	9
   211  0008                     _PORTD	set	8
   212  0007                     _PORTC	set	7
   213  0005                     _PORTA	set	5
   214  000F                     _TMR1H	set	15
   215  000E                     _TMR1L	set	14
   216  0008                     _PORTDbits	set	8
   217  0001                     _TMR0	set	1
   218  000B                     _INTCONbits	set	11
   219  000C                     _PIR1bits	set	12
   220  0006                     _PORTB	set	6
   221  001B                     _CCPR2L	set	27
   222  001F                     _ADCON0bits	set	31
   223  001E                     _ADRESH	set	30
   224  0015                     _CCPR1L	set	21
   225  0066                     _ADIF	set	102
   226  008C                     _PIE1bits	set	140
   227  0081                     _OPTION_REGbits	set	129
   228  0092                     _PR2	set	146
   229  0087                     _TRISCbits	set	135
   230  009F                     _ADCON1bits	set	159
   231  0089                     _TRISE	set	137
   232  0088                     _TRISD	set	136
   233  0087                     _TRISC	set	135
   234  0086                     _TRISB	set	134
   235  0085                     _TRISA	set	133
   236  008F                     _OSCCONbits	set	143
   237  0188                     _ANSELbits	set	392
   238  0189                     _ANSELH	set	393
   239                           
   240                           	psect	cinit
   241  0011                     start_initialization:	
   242                           ; #config settings
   243                           
   244  0011                     __initialization:
   245                           
   246                           ; Clear objects allocated to COMMON
   247  0011  01F9               	clrf	__pbssCOMMON& (0+127)
   248  0012  01FA               	clrf	(__pbssCOMMON+1)& (0+127)
   249  0013  01FB               	clrf	(__pbssCOMMON+2)& (0+127)
   250  0014  01FC               	clrf	(__pbssCOMMON+3)& (0+127)
   251  0015  01FD               	clrf	(__pbssCOMMON+4)& (0+127)
   252                           
   253                           ; Clear objects allocated to BANK0
   254  0016  1283               	bcf	3,5	;RP0=0, select bank0
   255  0017  1303               	bcf	3,6	;RP1=0, select bank0
   256  0018  01A0               	clrf	__pbssBANK0& (0+127)
   257  0019  01A1               	clrf	(__pbssBANK0+1)& (0+127)
   258  001A  01A2               	clrf	(__pbssBANK0+2)& (0+127)
   259  001B  01A3               	clrf	(__pbssBANK0+3)& (0+127)
   260  001C  01A4               	clrf	(__pbssBANK0+4)& (0+127)
   261  001D  01A5               	clrf	(__pbssBANK0+5)& (0+127)
   262  001E  01A6               	clrf	(__pbssBANK0+6)& (0+127)
   263  001F                     end_of_initialization:	
   264                           ;End of C runtime variable initialization code
   265                           
   266  001F                     __end_of__initialization:
   267  001F  0183               	clrf	3
   268  0020  120A  118A  29E3   	ljmp	_main	;jump to C main() function
   269                           
   270                           	psect	bssCOMMON
   271  0079                     __pbssCOMMON:
   272  0079                     _contpot0:
   273  0079                     	ds	1
   274  007A                     _potbang3:
   275  007A                     	ds	1
   276  007B                     _potbang2:
   277  007B                     	ds	1
   278  007C                     _potbang1:
   279  007C                     	ds	1
   280  007D                     _potbang0:
   281  007D                     	ds	1
   282                           
   283                           	psect	bssBANK0
   284  0020                     __pbssBANK0:
   285  0020                     _habcont3:
   286  0020                     	ds	1
   287  0021                     _habcont2:
   288  0021                     	ds	1
   289  0022                     _habcont1:
   290  0022                     	ds	1
   291  0023                     _habcont0:
   292  0023                     	ds	1
   293  0024                     _contpot3:
   294  0024                     	ds	1
   295  0025                     _contpot2:
   296  0025                     	ds	1
   297  0026                     _contpot1:
   298  0026                     	ds	1
   299                           
   300                           	psect	cstackCOMMON
   301  0070                     __pcstackCOMMON:
   302  0070                     ?_numresets:
   303  0070                     ??_numresets:	
   304                           ; 1 bytes @ 0x0
   305                           
   306  0070                     ?_isr:	
   307                           ; 1 bytes @ 0x0
   308                           
   309  0070                     ?_main:	
   310                           ; 1 bytes @ 0x0
   311                           
   312                           
   313                           ; 1 bytes @ 0x0
   314  0070                     	ds	1
   315  0071                     numresets@tmr0resets:
   316                           
   317                           ; 1 bytes @ 0x1
   318  0071                     	ds	1
   319  0072                     numresets@potbang:
   320                           
   321                           ; 1 bytes @ 0x2
   322  0072                     	ds	1
   323  0073                     ??_isr:
   324                           
   325                           ; 1 bytes @ 0x3
   326  0073                     	ds	6
   327                           
   328                           	psect	cstackBANK0
   329  0027                     __pcstackBANK0:
   330  0027                     ??_main:
   331                           
   332                           ; 1 bytes @ 0x0
   333  0027                     	ds	1
   334                           
   335                           	psect	maintext
   336  01E3                     __pmaintext:	
   337 ;;
   338 ;;Main: autosize = 0, tempsize = 1, incstack = 0, save=0
   339 ;;
   340 ;; *************** function _main *****************
   341 ;; Defined at:
   342 ;;		line 171 in file "proyectofinal.c"
   343 ;; Parameters:    Size  Location     Type
   344 ;;		None
   345 ;; Auto vars:     Size  Location     Type
   346 ;;		None
   347 ;; Return value:  Size  Location     Type
   348 ;;                  1    wreg      void 
   349 ;; Registers used:
   350 ;;		wreg, status,2, status,0
   351 ;; Tracked objects:
   352 ;;		On entry : B00/0
   353 ;;		On exit  : 0/0
   354 ;;		Unchanged: 0/0
   355 ;; Data sizes:     COMMON   BANK0   BANK1   BANK3   BANK2
   356 ;;      Params:         0       0       0       0       0
   357 ;;      Locals:         0       0       0       0       0
   358 ;;      Temps:          0       1       0       0       0
   359 ;;      Totals:         0       1       0       0       0
   360 ;;Total ram usage:        1 bytes
   361 ;; Hardware stack levels required when called:    2
   362 ;; This function calls:
   363 ;;		Nothing
   364 ;; This function is called by:
   365 ;;		Startup code after reset
   366 ;; This function uses a non-reentrant model
   367 ;;
   368                           
   369                           
   370                           ;psect for function _main
   371  01E3                     _main:
   372  01E3                     l1221:	
   373                           ;incstack = 0
   374                           ; Regs used in _main: [wreg+status,2+status,0]
   375                           
   376  01E3  3070               	movlw	112
   377  01E4  1683               	bsf	3,5	;RP0=1, select bank1
   378  01E5  1303               	bcf	3,6	;RP1=0, select bank1
   379  01E6  048F               	iorwf	15,f	;volatile
   380  01E7                     l1223:
   381  01E7  140F               	bsf	15,0	;volatile
   382  01E8                     l1225:
   383  01E8  1683               	bsf	3,5	;RP0=1, select bank3
   384  01E9  1703               	bsf	3,6	;RP1=1, select bank3
   385  01EA  0189               	clrf	9	;volatile
   386  01EB                     l1227:
   387  01EB  1408               	bsf	8,0	;volatile
   388  01EC                     l1229:
   389  01EC  1488               	bsf	8,1	;volatile
   390  01ED                     l1231:
   391  01ED  1508               	bsf	8,2	;volatile
   392  01EE                     l1233:
   393  01EE  1588               	bsf	8,3	;volatile
   394  01EF                     l1235:
   395  01EF  1608               	bsf	8,4	;volatile
   396  01F0                     l1237:
   397  01F0  1688               	bsf	8,5	;volatile
   398  01F1                     l1239:
   399  01F1  307F               	movlw	127
   400  01F2  1683               	bsf	3,5	;RP0=1, select bank1
   401  01F3  1303               	bcf	3,6	;RP1=0, select bank1
   402  01F4  0085               	movwf	5	;volatile
   403  01F5                     l1241:
   404  01F5  0186               	clrf	6	;volatile
   405  01F6                     l1243:
   406  01F6  0187               	clrf	7	;volatile
   407  01F7                     l1245:
   408  01F7  0188               	clrf	8	;volatile
   409  01F8                     l1247:
   410  01F8  3001               	movlw	1
   411  01F9  0089               	movwf	9	;volatile
   412  01FA                     l1249:
   413  01FA  1283               	bcf	3,5	;RP0=0, select bank0
   414  01FB  1303               	bcf	3,6	;RP1=0, select bank0
   415  01FC  0185               	clrf	5	;volatile
   416  01FD                     l1251:
   417  01FD  0186               	clrf	6	;volatile
   418  01FE                     l1253:
   419  01FE  0187               	clrf	7	;volatile
   420  01FF                     l1255:
   421  01FF  0188               	clrf	8	;volatile
   422  0200                     l1257:
   423  0200  0189               	clrf	9	;volatile
   424  0201                     l1259:
   425  0201  01F9               	clrf	_contpot0
   426  0202                     l1261:
   427  0202  01A6               	clrf	_contpot1
   428  0203                     l1263:
   429  0203  01A5               	clrf	_contpot2
   430  0204                     l1265:
   431  0204  01A4               	clrf	_contpot3
   432  0205                     l1267:
   433  0205  01FD               	clrf	_potbang0
   434  0206                     l1269:
   435  0206  01FC               	clrf	_potbang1
   436  0207                     l1271:
   437  0207  01FB               	clrf	_potbang2
   438  0208                     l1273:
   439  0208  01FA               	clrf	_potbang3
   440  0209                     l1275:
   441  0209  081F               	movf	31,w	;volatile
   442  020A  393F               	andlw	-193
   443  020B  3880               	iorlw	128
   444  020C  009F               	movwf	31	;volatile
   445  020D                     l1277:
   446  020D  111F               	bcf	31,2	;volatile
   447  020E                     l1279:
   448  020E  1683               	bsf	3,5	;RP0=1, select bank1
   449  020F  1303               	bcf	3,6	;RP1=0, select bank1
   450  0210  129F               	bcf	31,5	;volatile
   451  0211                     l1281:
   452  0211  121F               	bcf	31,4	;volatile
   453  0212                     l1283:
   454  0212  139F               	bcf	31,7	;volatile
   455  0213                     l1285:
   456  0213  1283               	bcf	3,5	;RP0=0, select bank0
   457  0214  1303               	bcf	3,6	;RP1=0, select bank0
   458  0215  141F               	bsf	31,0	;volatile
   459  0216                     l1287:
   460  0216  3020               	movlw	32
   461  0217  1283               	bcf	3,5	;RP0=0, select bank0
   462  0218  1303               	bcf	3,6	;RP1=0, select bank0
   463  0219  00A7               	movwf	??_main
   464  021A                     u697:
   465  021A  0BA7               	decfsz	??_main,f
   466  021B  2A1A               	goto	u697
   467  021C  0000               	nop
   468  021D                     l1289:
   469  021D  1683               	bsf	3,5	;RP0=1, select bank1
   470  021E  1303               	bcf	3,6	;RP1=0, select bank1
   471  021F  1507               	bsf	7,2	;volatile
   472  0220                     l1291:
   473  0220  30FA               	movlw	250
   474  0221  0092               	movwf	18	;volatile
   475  0222                     l1293:
   476  0222  303F               	movlw	-193
   477  0223  1283               	bcf	3,5	;RP0=0, select bank0
   478  0224  1303               	bcf	3,6	;RP1=0, select bank0
   479  0225  0597               	andwf	23,f	;volatile
   480  0226                     l1295:
   481  0226  0817               	movf	23,w	;volatile
   482  0227  39F0               	andlw	-16
   483  0228  380C               	iorlw	12
   484  0229  0097               	movwf	23	;volatile
   485  022A                     l1297:
   486  022A  300F               	movlw	15
   487  022B  0095               	movwf	21	;volatile
   488  022C                     l1299:
   489  022C  30CF               	movlw	-49
   490  022D  0597               	andwf	23,f	;volatile
   491  022E                     l1301:
   492  022E  1683               	bsf	3,5	;RP0=1, select bank1
   493  022F  1303               	bcf	3,6	;RP1=0, select bank1
   494  0230  1487               	bsf	7,1	;volatile
   495  0231                     l1303:
   496  0231  1283               	bcf	3,5	;RP0=0, select bank0
   497  0232  1303               	bcf	3,6	;RP1=0, select bank0
   498  0233  081D               	movf	29,w	;volatile
   499  0234  39F0               	andlw	-16
   500  0235  380C               	iorlw	12
   501  0236  009D               	movwf	29	;volatile
   502  0237                     l1305:
   503  0237  300F               	movlw	15
   504  0238  009B               	movwf	27	;volatile
   505  0239                     l1307:
   506  0239  129D               	bcf	29,5	;volatile
   507  023A                     l1309:
   508  023A  1683               	bsf	3,5	;RP0=1, select bank1
   509  023B  1303               	bcf	3,6	;RP1=0, select bank1
   510  023C  1281               	bcf	1,5	;volatile
   511  023D                     l1311:
   512  023D  1181               	bcf	1,3	;volatile
   513  023E                     l1313:
   514  023E  30F8               	movlw	-8
   515  023F  0581               	andwf	1,f	;volatile
   516  0240                     l1315:
   517  0240  30EA               	movlw	234
   518  0241  1283               	bcf	3,5	;RP0=0, select bank0
   519  0242  1303               	bcf	3,6	;RP1=0, select bank0
   520  0243  0081               	movwf	1	;volatile
   521  0244                     l1317:
   522  0244  110B               	bcf	11,2	;volatile
   523  0245                     l1319:
   524  0245  30C0               	movlw	192
   525  0246  008E               	movwf	14	;volatile
   526  0247                     l1321:
   527  0247  3063               	movlw	99
   528  0248  008F               	movwf	15	;volatile
   529  0249                     l1323:
   530  0249  3030               	movlw	48
   531  024A  0490               	iorwf	16,f	;volatile
   532  024B                     l1325:
   533  024B  1090               	bcf	16,1	;volatile
   534  024C                     l1327:
   535  024C  1410               	bsf	16,0	;volatile
   536  024D                     l1329:
   537  024D  100C               	bcf	12,0	;volatile
   538  024E                     l1331:
   539  024E  108C               	bcf	12,1	;volatile
   540  024F                     l1333:
   541  024F  3003               	movlw	3
   542  0250  0492               	iorwf	18,f	;volatile
   543  0251                     l1335:
   544  0251  1512               	bsf	18,2	;volatile
   545  0252                     l147:
   546  0252  1C8C               	btfss	12,1	;volatile
   547  0253  2A55               	goto	u681
   548  0254  2A56               	goto	u680
   549  0255                     u681:
   550  0255  2A52               	goto	l147
   551  0256                     u680:
   552  0256                     l149:
   553  0256  108C               	bcf	12,1	;volatile
   554  0257  1683               	bsf	3,5	;RP0=1, select bank1
   555  0258  1303               	bcf	3,6	;RP1=0, select bank1
   556  0259  1107               	bcf	7,2	;volatile
   557  025A  1087               	bcf	7,1	;volatile
   558  025B  168B               	bsf	11,5	;volatile
   559  025C  140C               	bsf	12,0	;volatile
   560  025D  1283               	bcf	3,5	;RP0=0, select bank0
   561  025E  1303               	bcf	3,6	;RP1=0, select bank0
   562  025F  130C               	bcf	12,6	;volatile
   563  0260  1683               	bsf	3,5	;RP0=1, select bank1
   564  0261  1303               	bcf	3,6	;RP1=0, select bank1
   565  0262  170C               	bsf	12,6	;volatile
   566  0263  170B               	bsf	11,6	;volatile
   567  0264  178B               	bsf	11,7	;volatile
   568  0265  1283               	bcf	3,5	;RP0=0, select bank0
   569  0266  1303               	bcf	3,6	;RP1=0, select bank0
   570  0267  149F               	bsf	31,1	;volatile
   571  0268                     l150:
   572  0268                     l151:
   573  0268  2A68               	goto	l150
   574  0269  120A  118A  280E   	ljmp	start
   575  026C                     __end_of_main:
   576                           
   577                           	psect	text1
   578  0023                     __ptext1:	
   579 ;; *************** function _isr *****************
   580 ;; Defined at:
   581 ;;		line 87 in file "proyectofinal.c"
   582 ;; Parameters:    Size  Location     Type
   583 ;;		None
   584 ;; Auto vars:     Size  Location     Type
   585 ;;		None
   586 ;; Return value:  Size  Location     Type
   587 ;;                  1    wreg      void 
   588 ;; Registers used:
   589 ;;		wreg, fsr0l, fsr0h, status,2, status,0, pclath, cstack
   590 ;; Tracked objects:
   591 ;;		On entry : 0/0
   592 ;;		On exit  : 0/0
   593 ;;		Unchanged: 0/0
   594 ;; Data sizes:     COMMON   BANK0   BANK1   BANK3   BANK2
   595 ;;      Params:         0       0       0       0       0
   596 ;;      Locals:         0       0       0       0       0
   597 ;;      Temps:          6       0       0       0       0
   598 ;;      Totals:         6       0       0       0       0
   599 ;;Total ram usage:        6 bytes
   600 ;; Hardware stack levels used:    1
   601 ;; Hardware stack levels required when called:    1
   602 ;; This function calls:
   603 ;;		_numresets
   604 ;; This function is called by:
   605 ;;		Interrupt level 1
   606 ;; This function uses a non-reentrant model
   607 ;;
   608                           
   609                           
   610                           ;psect for function _isr
   611  0023                     _isr:
   612  0023                     i1l1121:
   613  0023  1283               	bcf	3,5	;RP0=0, select bank0
   614  0024  1303               	bcf	3,6	;RP1=0, select bank0
   615  0025  1F0C               	btfss	12,6	;volatile
   616  0026  2828               	goto	u57_21
   617  0027  2829               	goto	u57_20
   618  0028                     u57_21:
   619  0028  28B3               	goto	i1l1157
   620  0029                     u57_20:
   621  0029  288C               	goto	i1l1149
   622  002A                     i1l1125:
   623  002A  081E               	movf	30,w	;volatile
   624  002B  00F3               	movwf	??_isr
   625  002C  1003               	clrc
   626  002D  0C73               	rrf	??_isr,w
   627  002E  3E7C               	addlw	124
   628  002F  0095               	movwf	21	;volatile
   629  0030  081F               	movf	31,w	;volatile
   630  0031  39C3               	andlw	-61
   631  0032  3804               	iorlw	4
   632  0033  009F               	movwf	31	;volatile
   633  0034  28AB               	goto	i1l1151
   634  0035                     i1l1127:
   635  0035  081E               	movf	30,w	;volatile
   636  0036  00F3               	movwf	??_isr
   637  0037  1003               	clrc
   638  0038  0C73               	rrf	??_isr,w
   639  0039  3E7C               	addlw	124
   640  003A  009B               	movwf	27	;volatile
   641  003B  081F               	movf	31,w	;volatile
   642  003C  39C3               	andlw	-61
   643  003D  3808               	iorlw	8
   644  003E  009F               	movwf	31	;volatile
   645  003F  28AB               	goto	i1l1151
   646  0040                     i1l1129:
   647  0040  081E               	movf	30,w	;volatile
   648  0041  00F3               	movwf	??_isr
   649  0042  1003               	clrc
   650  0043  0C73               	rrf	??_isr,w
   651  0044  120A  118A  2120  120A  118A  	fcall	_numresets
   652  0049  00F4               	movwf	??_isr+1
   653  004A  0874               	movf	??_isr+1,w
   654  004B  00FD               	movwf	_potbang0
   655  004C                     i1l1131:
   656  004C  1283               	bcf	3,5	;RP0=0, select bank0
   657  004D  1303               	bcf	3,6	;RP1=0, select bank0
   658  004E  081F               	movf	31,w	;volatile
   659  004F  39C3               	andlw	-61
   660  0050  380C               	iorlw	12
   661  0051  009F               	movwf	31	;volatile
   662  0052                     i1l1133:
   663  0052  081E               	movf	30,w	;volatile
   664  0053  0086               	movwf	6	;volatile
   665  0054  28AB               	goto	i1l1151
   666  0055                     i1l1135:
   667  0055  081E               	movf	30,w	;volatile
   668  0056  00F3               	movwf	??_isr
   669  0057  1003               	clrc
   670  0058  0C73               	rrf	??_isr,w
   671  0059  120A  118A  2120  120A  118A  	fcall	_numresets
   672  005E  00F4               	movwf	??_isr+1
   673  005F  0874               	movf	??_isr+1,w
   674  0060  00FC               	movwf	_potbang1
   675  0061                     i1l1137:
   676  0061  1283               	bcf	3,5	;RP0=0, select bank0
   677  0062  1303               	bcf	3,6	;RP1=0, select bank0
   678  0063  081F               	movf	31,w	;volatile
   679  0064  39C3               	andlw	-61
   680  0065  3810               	iorlw	16
   681  0066  009F               	movwf	31	;volatile
   682  0067  28AB               	goto	i1l1151
   683  0068                     i1l1139:
   684  0068  081E               	movf	30,w	;volatile
   685  0069  00F3               	movwf	??_isr
   686  006A  1003               	clrc
   687  006B  0C73               	rrf	??_isr,w
   688  006C  120A  118A  2120  120A  118A  	fcall	_numresets
   689  0071  00F4               	movwf	??_isr+1
   690  0072  0874               	movf	??_isr+1,w
   691  0073  00FB               	movwf	_potbang2
   692  0074                     i1l1141:
   693  0074  1283               	bcf	3,5	;RP0=0, select bank0
   694  0075  1303               	bcf	3,6	;RP1=0, select bank0
   695  0076  081F               	movf	31,w	;volatile
   696  0077  39C3               	andlw	-61
   697  0078  3814               	iorlw	20
   698  0079  009F               	movwf	31	;volatile
   699  007A  28AB               	goto	i1l1151
   700  007B                     i1l1143:
   701  007B  081E               	movf	30,w	;volatile
   702  007C  00F3               	movwf	??_isr
   703  007D  1003               	clrc
   704  007E  0C73               	rrf	??_isr,w
   705  007F  120A  118A  2120  120A  118A  	fcall	_numresets
   706  0084  00F4               	movwf	??_isr+1
   707  0085  0874               	movf	??_isr+1,w
   708  0086  00FA               	movwf	_potbang3
   709  0087                     i1l1145:
   710  0087  30C3               	movlw	-61
   711  0088  1283               	bcf	3,5	;RP0=0, select bank0
   712  0089  1303               	bcf	3,6	;RP1=0, select bank0
   713  008A  059F               	andwf	31,f	;volatile
   714  008B  28AB               	goto	i1l1151
   715  008C                     i1l1149:
   716  008C  0C1F               	rrf	31,w	;volatile
   717  008D  00F3               	movwf	??_isr
   718  008E  0C73               	rrf	??_isr,w
   719  008F  390F               	andlw	15
   720  0090  00F4               	movwf	??_isr+1
   721  0091  01F5               	clrf	??_isr+2
   722                           
   723                           ; Switch on 2 bytes has been partitioned into a top level switch of size 1, and 1 sub-sw
      +                          itches
   724                           ; Switch size 1, requested type "simple"
   725                           ; Number of cases is 1, Range of values is 0 to 0
   726                           ; switch strategies available:
   727                           ; Name         Instructions Cycles
   728                           ; simple_byte            4     3 (average)
   729                           ; direct_byte           11     8 (fixed)
   730                           ; jumptable            260     6 (fixed)
   731                           ;	Chosen strategy is simple_byte
   732  0092  0875               	movf	??_isr+2,w
   733  0093  3A00               	xorlw	0	; case 0
   734  0094  1903               	skipnz
   735  0095  2897               	goto	i1l1357
   736  0096  28AB               	goto	i1l1151
   737  0097                     i1l1357:
   738                           
   739                           ; Switch size 1, requested type "simple"
   740                           ; Number of cases is 6, Range of values is 0 to 5
   741                           ; switch strategies available:
   742                           ; Name         Instructions Cycles
   743                           ; simple_byte           19    10 (average)
   744                           ; direct_byte           26     8 (fixed)
   745                           ; jumptable            260     6 (fixed)
   746                           ;	Chosen strategy is simple_byte
   747  0097  0874               	movf	??_isr+1,w
   748  0098  3A00               	xorlw	0	; case 0
   749  0099  1903               	skipnz
   750  009A  282A               	goto	i1l1125
   751  009B  3A01               	xorlw	1	; case 1
   752  009C  1903               	skipnz
   753  009D  2835               	goto	i1l1127
   754  009E  3A03               	xorlw	3	; case 2
   755  009F  1903               	skipnz
   756  00A0  2840               	goto	i1l1129
   757  00A1  3A01               	xorlw	1	; case 3
   758  00A2  1903               	skipnz
   759  00A3  2855               	goto	i1l1135
   760  00A4  3A07               	xorlw	7	; case 4
   761  00A5  1903               	skipnz
   762  00A6  2868               	goto	i1l1139
   763  00A7  3A01               	xorlw	1	; case 5
   764  00A8  1903               	skipnz
   765  00A9  287B               	goto	i1l1143
   766  00AA  28AB               	goto	i1l1151
   767  00AB                     i1l1151:
   768  00AB  3021               	movlw	33
   769  00AC  00F3               	movwf	??_isr
   770  00AD                     u70_27:
   771  00AD  0BF3               	decfsz	??_isr,f
   772  00AE  28AD               	goto	u70_27
   773  00AF                     i1l1153:
   774  00AF  1283               	bcf	3,5	;RP0=0, select bank0
   775  00B0  1303               	bcf	3,6	;RP1=0, select bank0
   776  00B1  130C               	bcf	12,6	;volatile
   777  00B2                     i1l1155:
   778  00B2  149F               	bsf	31,1	;volatile
   779  00B3                     i1l1157:
   780  00B3  1D0B               	btfss	11,2	;volatile
   781  00B4  28B6               	goto	u58_21
   782  00B5  28B7               	goto	u58_20
   783  00B6                     u58_21:
   784  00B6  2902               	goto	i1l1195
   785  00B7                     u58_20:
   786  00B7                     i1l1159:
   787  00B7  30EA               	movlw	234
   788  00B8  0081               	movwf	1	;volatile
   789  00B9  0879               	movf	_contpot0,w
   790  00BA  067D               	xorwf	_potbang0,w
   791  00BB  1D03               	skipz
   792  00BC  28BE               	goto	u59_21
   793  00BD  28BF               	goto	u59_20
   794  00BE                     u59_21:
   795  00BE  28C2               	goto	i1l1165
   796  00BF                     u59_20:
   797  00BF                     i1l1161:
   798  00BF  1008               	bcf	8,0	;volatile
   799  00C0                     i1l1163:
   800  00C0  01A3               	clrf	_habcont0
   801  00C1  01F9               	clrf	_contpot0
   802  00C2                     i1l1165:
   803  00C2  0826               	movf	_contpot1,w
   804  00C3  067C               	xorwf	_potbang1,w
   805  00C4  1D03               	skipz
   806  00C5  28C7               	goto	u60_21
   807  00C6  28C8               	goto	u60_20
   808  00C7                     u60_21:
   809  00C7  28CB               	goto	i1l1171
   810  00C8                     u60_20:
   811  00C8                     i1l1167:
   812  00C8  1088               	bcf	8,1	;volatile
   813  00C9                     i1l1169:
   814  00C9  01A2               	clrf	_habcont1
   815  00CA  01A6               	clrf	_contpot1
   816  00CB                     i1l1171:
   817  00CB  0825               	movf	_contpot2,w
   818  00CC  067B               	xorwf	_potbang2,w
   819  00CD  1D03               	skipz
   820  00CE  28D0               	goto	u61_21
   821  00CF  28D1               	goto	u61_20
   822  00D0                     u61_21:
   823  00D0  28D4               	goto	i1l1177
   824  00D1                     u61_20:
   825  00D1                     i1l1173:
   826  00D1  1108               	bcf	8,2	;volatile
   827  00D2                     i1l1175:
   828  00D2  01A1               	clrf	_habcont2
   829  00D3  01A5               	clrf	_contpot2
   830  00D4                     i1l1177:
   831  00D4  0824               	movf	_contpot3,w
   832  00D5  067A               	xorwf	_potbang3,w
   833  00D6  1D03               	skipz
   834  00D7  28D9               	goto	u62_21
   835  00D8  28DA               	goto	u62_20
   836  00D9                     u62_21:
   837  00D9  28DD               	goto	i1l1183
   838  00DA                     u62_20:
   839  00DA                     i1l1179:
   840  00DA  1188               	bcf	8,3	;volatile
   841  00DB                     i1l1181:
   842  00DB  01A0               	clrf	_habcont3
   843  00DC  01A4               	clrf	_contpot3
   844  00DD                     i1l1183:
   845  00DD  0323               	decf	_habcont0,w
   846  00DE  1D03               	btfss	3,2
   847  00DF  28E1               	goto	u63_21
   848  00E0  28E2               	goto	u63_20
   849  00E1                     u63_21:
   850  00E1  28E6               	goto	i1l137
   851  00E2                     u63_20:
   852  00E2                     i1l1185:
   853  00E2  3001               	movlw	1
   854  00E3  00F3               	movwf	??_isr
   855  00E4  0873               	movf	??_isr,w
   856  00E5  07F9               	addwf	_contpot0,f
   857  00E6                     i1l137:
   858  00E6  0322               	decf	_habcont1,w
   859  00E7  1D03               	btfss	3,2
   860  00E8  28EA               	goto	u64_21
   861  00E9  28EB               	goto	u64_20
   862  00EA                     u64_21:
   863  00EA  28EF               	goto	i1l138
   864  00EB                     u64_20:
   865  00EB                     i1l1187:
   866  00EB  3001               	movlw	1
   867  00EC  00F3               	movwf	??_isr
   868  00ED  0873               	movf	??_isr,w
   869  00EE  07A6               	addwf	_contpot1,f
   870  00EF                     i1l138:
   871  00EF  0321               	decf	_habcont2,w
   872  00F0  1D03               	btfss	3,2
   873  00F1  28F3               	goto	u65_21
   874  00F2  28F4               	goto	u65_20
   875  00F3                     u65_21:
   876  00F3  28F8               	goto	i1l139
   877  00F4                     u65_20:
   878  00F4                     i1l1189:
   879  00F4  3001               	movlw	1
   880  00F5  00F3               	movwf	??_isr
   881  00F6  0873               	movf	??_isr,w
   882  00F7  07A5               	addwf	_contpot2,f
   883  00F8                     i1l139:
   884  00F8  0320               	decf	_habcont3,w
   885  00F9  1D03               	btfss	3,2
   886  00FA  28FC               	goto	u66_21
   887  00FB  28FD               	goto	u66_20
   888  00FC                     u66_21:
   889  00FC  2901               	goto	i1l1193
   890  00FD                     u66_20:
   891  00FD                     i1l1191:
   892  00FD  3001               	movlw	1
   893  00FE  00F3               	movwf	??_isr
   894  00FF  0873               	movf	??_isr,w
   895  0100  07A4               	addwf	_contpot3,f
   896  0101                     i1l1193:
   897  0101  110B               	bcf	11,2	;volatile
   898  0102                     i1l1195:
   899  0102  1C0C               	btfss	12,0	;volatile
   900  0103  2905               	goto	u67_21
   901  0104  2906               	goto	u67_20
   902  0105                     u67_21:
   903  0105  2917               	goto	i1l142
   904  0106                     u67_20:
   905  0106                     i1l1197:
   906  0106  30C0               	movlw	192
   907  0107  008E               	movwf	14	;volatile
   908  0108  3063               	movlw	99
   909  0109  008F               	movwf	15	;volatile
   910  010A                     i1l1199:
   911  010A  01A3               	clrf	_habcont0
   912  010B  0AA3               	incf	_habcont0,f
   913  010C                     i1l1201:
   914  010C  01A2               	clrf	_habcont1
   915  010D  0AA2               	incf	_habcont1,f
   916  010E                     i1l1203:
   917  010E  01A1               	clrf	_habcont2
   918  010F  0AA1               	incf	_habcont2,f
   919  0110                     i1l1205:
   920  0110  01A0               	clrf	_habcont3
   921  0111  0AA0               	incf	_habcont3,f
   922  0112                     i1l1207:
   923  0112  1408               	bsf	8,0	;volatile
   924  0113                     i1l1209:
   925  0113  1488               	bsf	8,1	;volatile
   926  0114                     i1l1211:
   927  0114  1508               	bsf	8,2	;volatile
   928  0115                     i1l1213:
   929  0115  1588               	bsf	8,3	;volatile
   930  0116                     i1l1215:
   931  0116  100C               	bcf	12,0	;volatile
   932  0117                     i1l142:
   933  0117  0878               	movf	??_isr+5,w
   934  0118  008A               	movwf	10
   935  0119  0877               	movf	??_isr+4,w
   936  011A  0084               	movwf	4
   937  011B  0E76               	swapf	??_isr+3,w
   938  011C  0083               	movwf	3
   939  011D  0EFE               	swapf	btemp,f
   940  011E  0E7E               	swapf	btemp,w
   941  011F  0009               	retfie
   942  0120                     __end_of_isr:
   943                           
   944                           	psect	intentry
   945  0004                     __pintentry:	
   946                           ;incstack = 0
   947                           ; Regs used in _isr: [wreg-fsr0h+status,2+status,0+pclath+cstack]
   948                           
   949  0004                     interrupt_function:
   950  007E                     saved_w	set	btemp
   951  0004  00FE               	movwf	btemp
   952  0005  0E03               	swapf	3,w
   953  0006  00F6               	movwf	??_isr+3
   954  0007  0804               	movf	4,w
   955  0008  00F7               	movwf	??_isr+4
   956  0009  080A               	movf	10,w
   957  000A  00F8               	movwf	??_isr+5
   958  000B  120A  118A  2823   	ljmp	_isr
   959                           
   960                           	psect	text2
   961  0120                     __ptext2:	
   962 ;; *************** function _numresets *****************
   963 ;; Defined at:
   964 ;;		line 34 in file "proyectofinal.c"
   965 ;; Parameters:    Size  Location     Type
   966 ;;  potbang         1    wreg     unsigned char 
   967 ;; Auto vars:     Size  Location     Type
   968 ;;  potbang         1    2[COMMON] unsigned char 
   969 ;;  tmr0resets      1    1[COMMON] unsigned char 
   970 ;; Return value:  Size  Location     Type
   971 ;;                  1    wreg      unsigned char 
   972 ;; Registers used:
   973 ;;		wreg
   974 ;; Tracked objects:
   975 ;;		On entry : 0/0
   976 ;;		On exit  : 0/0
   977 ;;		Unchanged: 0/0
   978 ;; Data sizes:     COMMON   BANK0   BANK1   BANK3   BANK2
   979 ;;      Params:         0       0       0       0       0
   980 ;;      Locals:         2       0       0       0       0
   981 ;;      Temps:          1       0       0       0       0
   982 ;;      Totals:         3       0       0       0       0
   983 ;;Total ram usage:        3 bytes
   984 ;; Hardware stack levels used:    1
   985 ;; This function calls:
   986 ;;		Nothing
   987 ;; This function is called by:
   988 ;;		_isr
   989 ;; This function uses a non-reentrant model
   990 ;;
   991                           
   992                           
   993                           ;psect for function _numresets
   994  0120                     _numresets:
   995                           
   996                           ;incstack = 0
   997                           ; Regs used in _numresets: [wreg]
   998                           ;numresets@potbang stored from wreg
   999  0120  00F2               	movwf	numresets@potbang
  1000  0121                     i1l1051:
  1001  0121  3015               	movlw	21
  1002  0122  0272               	subwf	numresets@potbang,w
  1003  0123  1803               	skipnc
  1004  0124  2926               	goto	u35_21
  1005  0125  2927               	goto	u35_20
  1006  0126                     u35_21:
  1007  0126  292C               	goto	i1l1055
  1008  0127                     u35_20:
  1009  0127                     i1l1053:
  1010  0127  3002               	movlw	2
  1011  0128  00F0               	movwf	??_numresets
  1012  0129  0870               	movf	??_numresets,w
  1013  012A  00F1               	movwf	numresets@tmr0resets
  1014  012B  29E1               	goto	i1l96
  1015  012C                     i1l1055:
  1016  012C  3015               	movlw	21
  1017  012D  0272               	subwf	numresets@potbang,w
  1018  012E  1C03               	skipc
  1019  012F  2931               	goto	u36_21
  1020  0130  2932               	goto	u36_20
  1021  0131                     u36_21:
  1022  0131  293D               	goto	i1l1061
  1023  0132                     u36_20:
  1024  0132                     i1l1057:
  1025  0132  3029               	movlw	41
  1026  0133  0272               	subwf	numresets@potbang,w
  1027  0134  1803               	skipnc
  1028  0135  2937               	goto	u37_21
  1029  0136  2938               	goto	u37_20
  1030  0137                     u37_21:
  1031  0137  293D               	goto	i1l1061
  1032  0138                     u37_20:
  1033  0138                     i1l1059:
  1034  0138  3003               	movlw	3
  1035  0139  00F0               	movwf	??_numresets
  1036  013A  0870               	movf	??_numresets,w
  1037  013B  00F1               	movwf	numresets@tmr0resets
  1038  013C  29E1               	goto	i1l96
  1039  013D                     i1l1061:
  1040  013D  3029               	movlw	41
  1041  013E  0272               	subwf	numresets@potbang,w
  1042  013F  1C03               	skipc
  1043  0140  2942               	goto	u38_21
  1044  0141  2943               	goto	u38_20
  1045  0142                     u38_21:
  1046  0142  294E               	goto	i1l1067
  1047  0143                     u38_20:
  1048  0143                     i1l1063:
  1049  0143  303D               	movlw	61
  1050  0144  0272               	subwf	numresets@potbang,w
  1051  0145  1803               	skipnc
  1052  0146  2948               	goto	u39_21
  1053  0147  2949               	goto	u39_20
  1054  0148                     u39_21:
  1055  0148  294E               	goto	i1l1067
  1056  0149                     u39_20:
  1057  0149                     i1l1065:
  1058  0149  3004               	movlw	4
  1059  014A  00F0               	movwf	??_numresets
  1060  014B  0870               	movf	??_numresets,w
  1061  014C  00F1               	movwf	numresets@tmr0resets
  1062  014D  29E1               	goto	i1l96
  1063  014E                     i1l1067:
  1064  014E  303D               	movlw	61
  1065  014F  0272               	subwf	numresets@potbang,w
  1066  0150  1C03               	skipc
  1067  0151  2953               	goto	u40_21
  1068  0152  2954               	goto	u40_20
  1069  0153                     u40_21:
  1070  0153  295F               	goto	i1l1073
  1071  0154                     u40_20:
  1072  0154                     i1l1069:
  1073  0154  3051               	movlw	81
  1074  0155  0272               	subwf	numresets@potbang,w
  1075  0156  1803               	skipnc
  1076  0157  2959               	goto	u41_21
  1077  0158  295A               	goto	u41_20
  1078  0159                     u41_21:
  1079  0159  295F               	goto	i1l1073
  1080  015A                     u41_20:
  1081  015A                     i1l1071:
  1082  015A  3005               	movlw	5
  1083  015B  00F0               	movwf	??_numresets
  1084  015C  0870               	movf	??_numresets,w
  1085  015D  00F1               	movwf	numresets@tmr0resets
  1086  015E  29E1               	goto	i1l96
  1087  015F                     i1l1073:
  1088  015F  3051               	movlw	81
  1089  0160  0272               	subwf	numresets@potbang,w
  1090  0161  1C03               	skipc
  1091  0162  2964               	goto	u42_21
  1092  0163  2965               	goto	u42_20
  1093  0164                     u42_21:
  1094  0164  2970               	goto	i1l1079
  1095  0165                     u42_20:
  1096  0165                     i1l1075:
  1097  0165  3065               	movlw	101
  1098  0166  0272               	subwf	numresets@potbang,w
  1099  0167  1803               	skipnc
  1100  0168  296A               	goto	u43_21
  1101  0169  296B               	goto	u43_20
  1102  016A                     u43_21:
  1103  016A  2970               	goto	i1l1079
  1104  016B                     u43_20:
  1105  016B                     i1l1077:
  1106  016B  3006               	movlw	6
  1107  016C  00F0               	movwf	??_numresets
  1108  016D  0870               	movf	??_numresets,w
  1109  016E  00F1               	movwf	numresets@tmr0resets
  1110  016F  29E1               	goto	i1l96
  1111  0170                     i1l1079:
  1112  0170  3065               	movlw	101
  1113  0171  0272               	subwf	numresets@potbang,w
  1114  0172  1C03               	skipc
  1115  0173  2975               	goto	u44_21
  1116  0174  2976               	goto	u44_20
  1117  0175                     u44_21:
  1118  0175  2981               	goto	i1l1085
  1119  0176                     u44_20:
  1120  0176                     i1l1081:
  1121  0176  3079               	movlw	121
  1122  0177  0272               	subwf	numresets@potbang,w
  1123  0178  1803               	skipnc
  1124  0179  297B               	goto	u45_21
  1125  017A  297C               	goto	u45_20
  1126  017B                     u45_21:
  1127  017B  2981               	goto	i1l1085
  1128  017C                     u45_20:
  1129  017C                     i1l1083:
  1130  017C  3007               	movlw	7
  1131  017D  00F0               	movwf	??_numresets
  1132  017E  0870               	movf	??_numresets,w
  1133  017F  00F1               	movwf	numresets@tmr0resets
  1134  0180  29E1               	goto	i1l96
  1135  0181                     i1l1085:
  1136  0181  3079               	movlw	121
  1137  0182  0272               	subwf	numresets@potbang,w
  1138  0183  1C03               	skipc
  1139  0184  2986               	goto	u46_21
  1140  0185  2987               	goto	u46_20
  1141  0186                     u46_21:
  1142  0186  2992               	goto	i1l1091
  1143  0187                     u46_20:
  1144  0187                     i1l1087:
  1145  0187  308D               	movlw	141
  1146  0188  0272               	subwf	numresets@potbang,w
  1147  0189  1803               	skipnc
  1148  018A  298C               	goto	u47_21
  1149  018B  298D               	goto	u47_20
  1150  018C                     u47_21:
  1151  018C  2992               	goto	i1l1091
  1152  018D                     u47_20:
  1153  018D                     i1l1089:
  1154  018D  3008               	movlw	8
  1155  018E  00F0               	movwf	??_numresets
  1156  018F  0870               	movf	??_numresets,w
  1157  0190  00F1               	movwf	numresets@tmr0resets
  1158  0191  29E1               	goto	i1l96
  1159  0192                     i1l1091:
  1160  0192  308D               	movlw	141
  1161  0193  0272               	subwf	numresets@potbang,w
  1162  0194  1C03               	skipc
  1163  0195  2997               	goto	u48_21
  1164  0196  2998               	goto	u48_20
  1165  0197                     u48_21:
  1166  0197  29A3               	goto	i1l1097
  1167  0198                     u48_20:
  1168  0198                     i1l1093:
  1169  0198  30A1               	movlw	161
  1170  0199  0272               	subwf	numresets@potbang,w
  1171  019A  1803               	skipnc
  1172  019B  299D               	goto	u49_21
  1173  019C  299E               	goto	u49_20
  1174  019D                     u49_21:
  1175  019D  29A3               	goto	i1l1097
  1176  019E                     u49_20:
  1177  019E                     i1l1095:
  1178  019E  3009               	movlw	9
  1179  019F  00F0               	movwf	??_numresets
  1180  01A0  0870               	movf	??_numresets,w
  1181  01A1  00F1               	movwf	numresets@tmr0resets
  1182  01A2  29E1               	goto	i1l96
  1183  01A3                     i1l1097:
  1184  01A3  30A1               	movlw	161
  1185  01A4  0272               	subwf	numresets@potbang,w
  1186  01A5  1C03               	skipc
  1187  01A6  29A8               	goto	u50_21
  1188  01A7  29A9               	goto	u50_20
  1189  01A8                     u50_21:
  1190  01A8  29B4               	goto	i1l1103
  1191  01A9                     u50_20:
  1192  01A9                     i1l1099:
  1193  01A9  30B5               	movlw	181
  1194  01AA  0272               	subwf	numresets@potbang,w
  1195  01AB  1803               	skipnc
  1196  01AC  29AE               	goto	u51_21
  1197  01AD  29AF               	goto	u51_20
  1198  01AE                     u51_21:
  1199  01AE  29B4               	goto	i1l1103
  1200  01AF                     u51_20:
  1201  01AF                     i1l1101:
  1202  01AF  300A               	movlw	10
  1203  01B0  00F0               	movwf	??_numresets
  1204  01B1  0870               	movf	??_numresets,w
  1205  01B2  00F1               	movwf	numresets@tmr0resets
  1206  01B3  29E1               	goto	i1l96
  1207  01B4                     i1l1103:
  1208  01B4  30B5               	movlw	181
  1209  01B5  0272               	subwf	numresets@potbang,w
  1210  01B6  1C03               	skipc
  1211  01B7  29B9               	goto	u52_21
  1212  01B8  29BA               	goto	u52_20
  1213  01B9                     u52_21:
  1214  01B9  29C5               	goto	i1l1109
  1215  01BA                     u52_20:
  1216  01BA                     i1l1105:
  1217  01BA  30C9               	movlw	201
  1218  01BB  0272               	subwf	numresets@potbang,w
  1219  01BC  1803               	skipnc
  1220  01BD  29BF               	goto	u53_21
  1221  01BE  29C0               	goto	u53_20
  1222  01BF                     u53_21:
  1223  01BF  29C5               	goto	i1l1109
  1224  01C0                     u53_20:
  1225  01C0                     i1l1107:
  1226  01C0  300B               	movlw	11
  1227  01C1  00F0               	movwf	??_numresets
  1228  01C2  0870               	movf	??_numresets,w
  1229  01C3  00F1               	movwf	numresets@tmr0resets
  1230  01C4  29E1               	goto	i1l96
  1231  01C5                     i1l1109:
  1232  01C5  30C9               	movlw	201
  1233  01C6  0272               	subwf	numresets@potbang,w
  1234  01C7  1C03               	skipc
  1235  01C8  29CA               	goto	u54_21
  1236  01C9  29CB               	goto	u54_20
  1237  01CA                     u54_21:
  1238  01CA  29D6               	goto	i1l1115
  1239  01CB                     u54_20:
  1240  01CB                     i1l1111:
  1241  01CB  30DD               	movlw	221
  1242  01CC  0272               	subwf	numresets@potbang,w
  1243  01CD  1803               	skipnc
  1244  01CE  29D0               	goto	u55_21
  1245  01CF  29D1               	goto	u55_20
  1246  01D0                     u55_21:
  1247  01D0  29D6               	goto	i1l1115
  1248  01D1                     u55_20:
  1249  01D1                     i1l1113:
  1250  01D1  300C               	movlw	12
  1251  01D2  00F0               	movwf	??_numresets
  1252  01D3  0870               	movf	??_numresets,w
  1253  01D4  00F1               	movwf	numresets@tmr0resets
  1254  01D5  29E1               	goto	i1l96
  1255  01D6                     i1l1115:
  1256  01D6  30DD               	movlw	221
  1257  01D7  0272               	subwf	numresets@potbang,w
  1258  01D8  1C03               	skipc
  1259  01D9  29DB               	goto	u56_21
  1260  01DA  29DC               	goto	u56_20
  1261  01DB                     u56_21:
  1262  01DB  29E1               	goto	i1l112
  1263  01DC                     u56_20:
  1264  01DC                     i1l1117:
  1265  01DC  300D               	movlw	13
  1266  01DD  00F0               	movwf	??_numresets
  1267  01DE  0870               	movf	??_numresets,w
  1268  01DF  00F1               	movwf	numresets@tmr0resets
  1269  01E0  29E1               	goto	i1l96
  1270  01E1                     i1l112:
  1271  01E1                     i1l96:
  1272  01E1  0871               	movf	numresets@tmr0resets,w
  1273  01E2                     i1l118:
  1274  01E2  0008               	return
  1275  01E3                     __end_of_numresets:
  1276  007E                     btemp	set	126	;btemp
  1277  007E                     wtemp0	set	126
  1278                           
  1279                           	psect	config
  1280                           
  1281                           ;Config register CONFIG1 @ 0x2007
  1282                           ;	Oscillator Selection bits
  1283                           ;	FOSC = INTRC_NOCLKOUT, INTOSCIO oscillator: I/O function on RA6/OSC2/CLKOUT pin, I/O f
      +                          unction on RA7/OSC1/CLKIN
  1284                           ;	Watchdog Timer Enable bit
  1285                           ;	WDTE = OFF, WDT disabled and can be enabled by SWDTEN bit of the WDTCON register
  1286                           ;	Power-up Timer Enable bit
  1287                           ;	PWRTE = OFF, PWRT disabled
  1288                           ;	RE3/MCLR pin function select bit
  1289                           ;	MCLRE = OFF, RE3/MCLR pin function is digital input, MCLR internally tied to VDD
  1290                           ;	Code Protection bit
  1291                           ;	CP = OFF, Program memory code protection is disabled
  1292                           ;	Data Code Protection bit
  1293                           ;	CPD = OFF, Data memory code protection is disabled
  1294                           ;	Brown Out Reset Selection bits
  1295                           ;	BOREN = OFF, BOR disabled
  1296                           ;	Internal External Switchover bit
  1297                           ;	IESO = OFF, Internal/External Switchover mode is disabled
  1298                           ;	Fail-Safe Clock Monitor Enabled bit
  1299                           ;	FCMEN = OFF, Fail-Safe Clock Monitor is disabled
  1300                           ;	Low Voltage Programming Enable bit
  1301                           ;	LVP = OFF, RB3 pin has digital I/O, HV on MCLR must be used for programming
  1302                           ;	In-Circuit Debugger Mode bit
  1303                           ;	DEBUG = 0x1, unprogrammed default
  1304  2007                     	org	8199
  1305  2007  20D4               	dw	8404
  1306                           
  1307                           ;Config register CONFIG2 @ 0x2008
  1308                           ;	Brown-out Reset Selection bit
  1309                           ;	BOR4V = BOR40V, Brown-out Reset set to 4.0V
  1310                           ;	Flash Program Memory Self Write Enable bits
  1311                           ;	WRT = OFF, Write protection off
  1312  2008                     	org	8200
  1313  2008  3FFF               	dw	16383

Data Sizes:
    Strings     0
    Constant    0
    Data        0
    BSS         12
    Persistent  0
    Stack       0

Auto Spaces:
    Space          Size  Autos    Used
    COMMON           14      9      14
    BANK0            80      1       8
    BANK1            80      0       0
    BANK3            96      0       0
    BANK2            96      0       0

Pointer List with Targets:

    None.

Critical Paths under _main in COMMON

    None.

Critical Paths under _isr in COMMON

    _isr->_numresets

Critical Paths under _main in BANK0

    None.

Critical Paths under _isr in BANK0

    None.

Critical Paths under _main in BANK1

    None.

Critical Paths under _isr in BANK1

    None.

Critical Paths under _main in BANK3

    None.

Critical Paths under _isr in BANK3

    None.

Critical Paths under _main in BANK2

    None.

Critical Paths under _isr in BANK2

    None.

Call Graph Tables:

 ---------------------------------------------------------------------------------
 (Depth) Function   	        Calls       Base Space   Used Autos Params    Refs
 ---------------------------------------------------------------------------------
 (0) _main                                                 1     1      0       0
                                              0 BANK0      1     1      0
 ---------------------------------------------------------------------------------
 Estimated maximum stack depth 0
 ---------------------------------------------------------------------------------
 (Depth) Function   	        Calls       Base Space   Used Autos Params    Refs
 ---------------------------------------------------------------------------------
 (1) _isr                                                  6     6      0     518
                                              3 COMMON     6     6      0
                          _numresets
 ---------------------------------------------------------------------------------
 (2) _numresets                                            3     3      0     518
                                              0 COMMON     3     3      0
 ---------------------------------------------------------------------------------
 Estimated maximum stack depth 2
 ---------------------------------------------------------------------------------

 Call Graph Graphs:

 _main (ROOT)

 _isr (ROOT)
   _numresets

 Address spaces:
Name               Size   Autos  Total    Cost      Usage
BITCOMMON            E      0       0       0        0.0%
EEDATA             100      0       0       0        0.0%
NULL                 0      0       0       0        0.0%
CODE                 0      0       0       0        0.0%
COMMON               E      9       E       1      100.0%
BITSFR0              0      0       0       1        0.0%
SFR0                 0      0       0       1        0.0%
BITSFR1              0      0       0       2        0.0%
SFR1                 0      0       0       2        0.0%
STACK                0      0       0       2        0.0%
ABS                  0      0      16       3        0.0%
BITBANK0            50      0       0       4        0.0%
BITSFR3              0      0       0       4        0.0%
SFR3                 0      0       0       4        0.0%
BANK0               50      1       8       5       10.0%
BITSFR2              0      0       0       5        0.0%
SFR2                 0      0       0       5        0.0%
BITBANK1            50      0       0       6        0.0%
BANK1               50      0       0       7        0.0%
BITBANK3            60      0       0       8        0.0%
BANK3               60      0       0       9        0.0%
BITBANK2            60      0       0      10        0.0%
BANK2               60      0       0      11        0.0%
DATA                 0      0      16      12        0.0%


Microchip Technology PIC Macro Assembler V2.31 build 20201012212115 
Symbol Table                                                                                   Fri Jun 04 01:33:56 2021

                    l150 0268                      l151 0268                      l147 0252  
                    l149 0256                      _PR2 0092                      u680 0256  
                    u681 0255                      u697 021A                      _isr 0023  
                    fsr0 0004                     l1301 022E                     l1221 01E3  
                   l1311 023D                     l1303 0231                     l1231 01ED  
                   l1223 01E7                     l1321 0247                     l1313 023E  
                   l1305 0237                     l1241 01F5                     l1233 01EE  
                   l1225 01E8                     l1331 024E                     l1323 0249  
                   l1315 0240                     l1307 0239                     l1251 01FD  
                   l1243 01F6                     l1235 01EF                     l1227 01EB  
                   l1333 024F                     l1325 024B                     l1317 0244  
                   l1309 023A                     l1261 0202                     l1253 01FE  
                   l1245 01F7                     l1237 01F0                     l1229 01EC  
                   l1335 0251                     l1327 024C                     l1319 0245  
                   l1271 0207                     l1263 0203                     l1255 01FF  
                   l1247 01F8                     l1239 01F1                     l1329 024D  
                   l1281 0211                     l1273 0208                     l1265 0204  
                   l1257 0200                     l1249 01FA                     l1291 0220  
                   l1283 0212                     l1275 0209                     l1267 0205  
                   l1259 0201                     l1293 0222                     l1285 0213  
                   l1277 020D                     l1269 0206                     l1295 0226  
                   l1287 0216                     l1279 020E                     l1297 022A  
                   l1289 021D                     l1299 022C                     _ADIF 0066  
                   ?_isr 0070                     i1l96 01E1                     _TMR0 0001  
                   _main 01E3                     btemp 007E                     start 000E  
                  ??_isr 0073                    ?_main 0070                    i1l112 01E1  
                  i1l118 01E2                    i1l142 0117                    i1l137 00E6  
                  i1l138 00EF                    i1l139 00F8                    u40_20 0154  
                  u40_21 0153                    u41_20 015A                    u41_21 0159  
                  _TMR1H 000F                    _TMR1L 000E                    u50_20 01A9  
                  u42_20 0165                    u50_21 01A8                    u42_21 0164  
                  u51_20 01AF                    u43_20 016B                    u35_20 0127  
                  u51_21 01AE                    u43_21 016A                    u35_21 0126  
                  _PORTA 0005                    _PORTB 0006                    _PORTC 0007  
                  _PORTD 0008                    _PORTE 0009                    u52_20 01BA  
                  u44_20 0176                    u36_20 0132                    u60_20 00C8  
                  u52_21 01B9                    u44_21 0175                    u36_21 0131  
                  u60_21 00C7                    u53_20 01C0                    u45_20 017C  
                  u37_20 0138                    u61_20 00D1                    u53_21 01BF  
                  u45_21 017B                    u37_21 0137                    u61_21 00D0  
                  u54_20 01CB                    u46_20 0187                    u38_20 0143  
                  u62_20 00DA                    u54_21 01CA                    u46_21 0186  
                  u38_21 0142                    u62_21 00D9                    u70_27 00AD  
                  u55_20 01D1                    u47_20 018D                    u39_20 0149  
                  u63_20 00E2                    u55_21 01D0                    u47_21 018C  
                  u39_21 0148                    u63_21 00E1                    u56_20 01DC  
                  u48_20 0198                    u64_20 00EB                    u56_21 01DB  
                  u48_21 0197                    u64_21 00EA                    u49_20 019E  
                  u65_20 00F4                    u57_20 0029                    u49_21 019D  
                  u65_21 00F3                    u57_21 0028                    _TRISA 0085  
                  _TRISB 0086                    _TRISC 0087                    _TRISD 0088  
                  _TRISE 0089                    u66_20 00FD                    u58_20 00B7  
                  u66_21 00FC                    u58_21 00B6                    u67_20 0106  
                  u59_20 00BF                    u67_21 0105                    u59_21 00BE  
                  pclath 000A                    status 0003                    wtemp0 007E  
        __initialization 0011             __end_of_main 026C                   ??_main 0027  
                 _ADRESH 001E                   _CCPR1L 0015                   _CCPR2L 001B  
                 _ANSELH 0189                   i1l1101 01AF                   i1l1111 01CB  
                 i1l1103 01B4                   i1l1113 01D1                   i1l1105 01BA  
                 i1l1201 010C                   i1l1121 0023                   i1l1115 01D6  
                 i1l1107 01C0                   i1l1051 0121                   i1l1211 0114  
                 i1l1203 010E                   i1l1131 004C                   i1l1117 01DC  
                 i1l1109 01C5                   i1l1061 013D                   i1l1053 0127  
                 i1l1213 0115                   i1l1205 0110                   i1l1141 0074  
                 i1l1133 0052                   i1l1125 002A                   i1l1071 015A  
                 i1l1063 0143                   i1l1055 012C                   i1l1215 0116  
                 i1l1207 0112                   i1l1143 007B                   i1l1135 0055  
                 i1l1127 0035                   i1l1151 00AB                   i1l1081 0176  
                 i1l1073 015F                   i1l1065 0149                   i1l1057 0132  
                 i1l1209 0113                   i1l1161 00BF                   i1l1153 00AF  
                 i1l1145 0087                   i1l1137 0061                   i1l1129 0040  
                 i1l1091 0192                   i1l1083 017C                   i1l1075 0165  
                 i1l1067 014E                   i1l1059 0138                   i1l1171 00CB  
                 i1l1163 00C0                   i1l1155 00B2                   i1l1139 0068  
                 i1l1093 0198                   i1l1085 0181                   i1l1077 016B  
                 i1l1069 0154                   i1l1181 00DB                   i1l1173 00D1  
                 i1l1165 00C2                   i1l1149 008C                   i1l1157 00B3  
                 i1l1095 019E                   i1l1087 0187                   i1l1079 0170  
                 i1l1191 00FD                   i1l1183 00DD                   i1l1175 00D2  
                 i1l1167 00C8                   i1l1159 00B7                   i1l1097 01A3  
                 i1l1089 018D                   i1l1193 0101                   i1l1185 00E2  
                 i1l1177 00D4                   i1l1169 00C9                   i1l1099 01A9  
                 i1l1187 00EB                   i1l1179 00DA                   i1l1195 0102  
                 i1l1197 0106                   i1l1189 00F4                   i1l1357 0097  
                 i1l1199 010A                   saved_w 007E  __end_of__initialization 001F  
         __pcstackCOMMON 0070      numresets@tmr0resets 0071           _OPTION_REGbits 0081  
             __pbssBANK0 0020               __pmaintext 01E3               __pintentry 0004  
     __size_of_numresets 00C3                _ANSELbits 0188                  __ptext1 0023  
                __ptext2 0120                _T1CONbits 0010                _T2CONbits 0012  
           __size_of_isr 00FD     end_of_initialization 001F        __end_of_numresets 01E3  
              _PORTDbits 0008                _TRISCbits 0087              _CCP1CONbits 0017  
            _CCP2CONbits 001D      start_initialization 0011              __end_of_isr 0120  
            __pbssCOMMON 0079                ___latbits 0002            __pcstackBANK0 0027  
      interrupt_function 0004                 _PIE1bits 008C                 _PIR1bits 000C  
              _numresets 0120               _ADCON0bits 001F               _ADCON1bits 009F  
       numresets@potbang 0072               ?_numresets 0070                 _habcont0 0023  
               _habcont1 0022                 _habcont2 0021                 _habcont3 0020  
               _contpot0 0079                 _contpot1 0026                 _contpot2 0025  
               _contpot3 0024            __size_of_main 0089                 _potbang0 007D  
               _potbang1 007C                 _potbang2 007B                 _potbang3 007A  
             _INTCONbits 000B                 intlevel1 0000               _OSCCONbits 008F  
            ??_numresets 0070  
